---
triple:          'arm64-apple-darwin'
binary-path:     '/Users/vanigupta/Desktop/216a3/COL216_Assignment3/L1simulate'
relocations:
  - { offsetInCU: 0x3F, offset: 0x3F, size: 0x8, addend: 0x0, symName: _caches, symObjAddr: 0x742B0, symBinAddr: 0x100018000, symSize: 0x0 }
  - { offsetInCU: 0xA130, offset: 0xA130, size: 0x8, addend: 0x0, symName: __ZNSt3__124__put_character_sequenceB8ue170006IcNS_11char_traitsIcEEEERNS_13basic_ostreamIT_T0_EES7_PKS4_m, symObjAddr: 0x49B4, symBinAddr: 0x100007D24, symSize: 0x1EC }
  - { offsetInCU: 0xC9F3, offset: 0xC9F3, size: 0x8, addend: 0x0, symName: __ZNSt3__16copy_nB8ue170006IPKcmPcEENS_9enable_ifIXsr37__has_random_access_iterator_categoryIT_EE5valueET1_E4typeES5_T0_S6_, symObjAddr: 0xB0BC, symBinAddr: 0x10000E42C, symSize: 0x44 }
  - { offsetInCU: 0xDEAA, offset: 0xDEAA, size: 0x8, addend: 0x0, symName: __ZNSt3__1lsB8ue170006INS_11char_traitsIcEEEERNS_13basic_ostreamIcT_EES6_PKc, symObjAddr: 0xF54, symBinAddr: 0x1000042C4, symSize: 0x48 }
  - { offsetInCU: 0xDEF0, offset: 0xDEF0, size: 0x8, addend: 0x0, symName: __ZNSt3__1plB8ue170006IcNS_11char_traitsIcEENS_9allocatorIcEEEENS_12basic_stringIT_T0_T1_EEOS9_PKS6_, symObjAddr: 0x1160, symBinAddr: 0x1000044D0, symSize: 0x40 }
  - { offsetInCU: 0xDF48, offset: 0xDF48, size: 0x8, addend: 0x0, symName: __ZNSt3__1plB8ue170006IcNS_11char_traitsIcEENS_9allocatorIcEEEENS_12basic_stringIT_T0_T1_EEOS9_SA_, symObjAddr: 0x11A0, symBinAddr: 0x100004510, symSize: 0x40 }
  - { offsetInCU: 0xDFA0, offset: 0xDFA0, size: 0x8, addend: 0x0, symName: __ZNSt3__1plB8ue170006IcNS_11char_traitsIcEENS_9allocatorIcEEEENS_12basic_stringIT_T0_T1_EERKS9_PKS6_, symObjAddr: 0x11E0, symBinAddr: 0x100004550, symSize: 0x11C }
  - { offsetInCU: 0xEDE8, offset: 0xEDE8, size: 0x8, addend: 0x0, symName: __ZNSt3__1lsB8ue170006IcNS_11char_traitsIcEENS_9allocatorIcEEEERNS_13basic_ostreamIT_T0_EES9_RKNS_12basic_stringIS6_S7_T1_EE, symObjAddr: 0x1490, symBinAddr: 0x100004800, symSize: 0x4C }
  - { offsetInCU: 0xEE40, offset: 0xEE40, size: 0x8, addend: 0x0, symName: __ZNSt3__17getlineB8ue170006IcNS_11char_traitsIcEENS_9allocatorIcEEEERNS_13basic_istreamIT_T0_EES9_RNS_12basic_stringIS6_S7_T1_EE, symObjAddr: 0x14DC, symBinAddr: 0x10000484C, symSize: 0x5C }
  - { offsetInCU: 0xF214, offset: 0xF214, size: 0x8, addend: 0x0, symName: __ZNSt3__1rsB8ue170006IcNS_11char_traitsIcEEEERNS_13basic_istreamIT_T0_EES7_RS4_, symObjAddr: 0x1660, symBinAddr: 0x1000049D0, symSize: 0x18C }
  - { offsetInCU: 0xF296, offset: 0xF296, size: 0x8, addend: 0x0, symName: __ZNSt3__13hexB8ue170006ERNS_8ios_baseE, symObjAddr: 0x182C, symBinAddr: 0x100004B9C, symSize: 0x30 }
  - { offsetInCU: 0xF450, offset: 0xF450, size: 0x8, addend: 0x0, symName: __ZNSt3__112__to_addressB8ue170006IjEEPT_S2_, symObjAddr: 0x1F1C, symBinAddr: 0x10000528C, symSize: 0x14 }
  - { offsetInCU: 0xF485, offset: 0xF485, size: 0x8, addend: 0x0, symName: __ZNSt3__119__libcpp_deallocateB8ue170006EPvmm, symObjAddr: 0x1FF4, symBinAddr: 0x100005364, symSize: 0x30 }
  - { offsetInCU: 0xF4CD, offset: 0xF4CD, size: 0x8, addend: 0x0, symName: __ZNSt3__127__do_deallocate_handle_sizeB8ue170006IJEEEvPvmDpT_, symObjAddr: 0x2024, symBinAddr: 0x100005394, symSize: 0x28 }
  - { offsetInCU: 0xF50B, offset: 0xF50B, size: 0x8, addend: 0x0, symName: __ZNSt3__124__libcpp_operator_deleteB8ue170006IJPvEEEvDpT_, symObjAddr: 0x204C, symBinAddr: 0x1000053BC, symSize: 0x24 }
  - { offsetInCU: 0xF540, offset: 0xF540, size: 0x8, addend: 0x0, symName: __ZNSt3__122__make_exception_guardB8ue170006INS_6vectorI5CacheNS_9allocatorIS2_EEE16__destroy_vectorEEENS_28__exception_guard_exceptionsIT_EES8_, symObjAddr: 0x266C, symBinAddr: 0x1000059DC, symSize: 0x40 }
  - { offsetInCU: 0xF575, offset: 0xF575, size: 0x8, addend: 0x0, symName: __ZNSt3__119__allocate_at_leastB8ue170006INS_9allocatorI5CacheEEEENS_19__allocation_resultINS_16allocator_traitsIT_E7pointerEEERS6_m, symObjAddr: 0x2A60, symBinAddr: 0x100005DD0, symSize: 0x40 }
  - { offsetInCU: 0xF5B8, offset: 0xF5B8, size: 0x8, addend: 0x0, symName: __ZNSt3__13minB8ue170006ImEERKT_S3_S3_, symObjAddr: 0x2BB8, symBinAddr: 0x100005F28, symSize: 0x2C }
  - { offsetInCU: 0xF7FC, offset: 0xF7FC, size: 0x8, addend: 0x0, symName: __ZNSt3__13minB8ue170006ImNS_6__lessIvvEEEERKT_S5_S5_T0_, symObjAddr: 0x2C44, symBinAddr: 0x100005FB4, symSize: 0x54 }
  - { offsetInCU: 0xF89B, offset: 0xF89B, size: 0x8, addend: 0x0, symName: __ZNSt3__120__throw_length_errorB8ue170006EPKc, symObjAddr: 0x2D24, symBinAddr: 0x100006094, symSize: 0x64 }
  - { offsetInCU: 0xF8C5, offset: 0xF8C5, size: 0x8, addend: 0x0, symName: __ZNSt3__117__libcpp_allocateB8ue170006Emm, symObjAddr: 0x2E98, symBinAddr: 0x100006208, symSize: 0x28 }
  - { offsetInCU: 0xF902, offset: 0xF902, size: 0x8, addend: 0x0, symName: __ZNSt3__121__libcpp_operator_newB8ue170006IJmEEEPvDpT_, symObjAddr: 0x2EC0, symBinAddr: 0x100006230, symSize: 0x24 }
  - { offsetInCU: 0xF93B, offset: 0xF93B, size: 0x8, addend: 0x0, symName: __ZNSt3__112__to_addressB8ue170006I5CacheEEPT_S3_, symObjAddr: 0x2FDC, symBinAddr: 0x10000634C, symSize: 0x14 }
  - { offsetInCU: 0xF970, offset: 0xF970, size: 0x8, addend: 0x0, symName: __ZNSt3__112__to_addressB8ue170006INS_6vectorI9CacheLineNS_9allocatorIS2_EEEEEEPT_S7_, symObjAddr: 0x3A4C, symBinAddr: 0x100006DBC, symSize: 0x14 }
  - { offsetInCU: 0xF9A5, offset: 0xF9A5, size: 0x8, addend: 0x0, symName: __ZNSt3__122__make_exception_guardB8ue170006INS_6vectorImNS_9allocatorImEEE16__destroy_vectorEEENS_28__exception_guard_exceptionsIT_EES7_, symObjAddr: 0x3D98, symBinAddr: 0x100007108, symSize: 0x40 }
  - { offsetInCU: 0xF9DA, offset: 0xF9DA, size: 0x8, addend: 0x0, symName: __ZNSt3__119__allocate_at_leastB8ue170006INS_9allocatorImEEEENS_19__allocation_resultINS_16allocator_traitsIT_E7pointerEEERS5_m, symObjAddr: 0x418C, symBinAddr: 0x1000074FC, symSize: 0x40 }
  - { offsetInCU: 0xFA1D, offset: 0xFA1D, size: 0x8, addend: 0x0, symName: __ZNSt3__112__to_addressB8ue170006ImEEPT_S2_, symObjAddr: 0x44B0, symBinAddr: 0x100007820, symSize: 0x14 }
  - { offsetInCU: 0xFA52, offset: 0xFA52, size: 0x8, addend: 0x0, symName: __ZNSt3__116__pad_and_outputB8ue170006IcNS_11char_traitsIcEEEENS_19ostreambuf_iteratorIT_T0_EES6_PKS4_S8_S8_RNS_8ios_baseES4_, symObjAddr: 0x4BF0, symBinAddr: 0x100007F60, symSize: 0x240 }
  - { offsetInCU: 0xFB21, offset: 0xFB21, size: 0x8, addend: 0x0, symName: __ZNSt3__112__to_addressB8ue170006IKcEEPT_S3_, symObjAddr: 0x5060, symBinAddr: 0x1000083D0, symSize: 0x14 }
  - { offsetInCU: 0xFB89, offset: 0xFB89, size: 0x8, addend: 0x0, symName: __ZNSt3__19use_facetB8ue170006INS_5ctypeIcEEEERKT_RKNS_6localeE, symObjAddr: 0x52E0, symBinAddr: 0x100008650, symSize: 0x2C }
  - { offsetInCU: 0x10056, offset: 0x10056, size: 0x8, addend: 0x0, symName: __ZNSt3__118__constexpr_strlenB8ue170006EPKc, symObjAddr: 0x5378, symBinAddr: 0x1000086E8, symSize: 0x24 }
  - { offsetInCU: 0x10082, offset: 0x10082, size: 0x8, addend: 0x0, symName: __ZNSt3__122__make_exception_guardB8ue170006INS_6vectorI9CacheLineNS_9allocatorIS2_EEE16__destroy_vectorEEENS_28__exception_guard_exceptionsIT_EES8_, symObjAddr: 0x5604, symBinAddr: 0x100008974, symSize: 0x40 }
  - { offsetInCU: 0x100B7, offset: 0x100B7, size: 0x8, addend: 0x0, symName: __ZNSt3__119__allocate_at_leastB8ue170006INS_9allocatorI9CacheLineEEEENS_19__allocation_resultINS_16allocator_traitsIT_E7pointerEEERS6_m, symObjAddr: 0x5A00, symBinAddr: 0x100008D70, symSize: 0x40 }
  - { offsetInCU: 0x100FA, offset: 0x100FA, size: 0x8, addend: 0x0, symName: __ZNSt3__112__to_addressB8ue170006I9CacheLineEEPT_S3_, symObjAddr: 0x5D48, symBinAddr: 0x1000090B8, symSize: 0x14 }
  - { offsetInCU: 0x1012F, offset: 0x1012F, size: 0x8, addend: 0x0, symName: __ZNSt3__122__make_exception_guardB8ue170006INS_6vectorIjNS_9allocatorIjEEE16__destroy_vectorEEENS_28__exception_guard_exceptionsIT_EES7_, symObjAddr: 0x61D8, symBinAddr: 0x100009548, symSize: 0x40 }
  - { offsetInCU: 0x10164, offset: 0x10164, size: 0x8, addend: 0x0, symName: __ZNSt3__119__allocate_at_leastB8ue170006INS_9allocatorIjEEEENS_19__allocation_resultINS_16allocator_traitsIT_E7pointerEEERS5_m, symObjAddr: 0x646C, symBinAddr: 0x1000097DC, symSize: 0x40 }
  - { offsetInCU: 0x101A7, offset: 0x101A7, size: 0x8, addend: 0x0, symName: __ZNSt3__130__uninitialized_allocator_copyB8ue170006INS_9allocatorIjEEPjS3_S3_EET2_RT_T0_T1_S4_, symObjAddr: 0x6684, symBinAddr: 0x1000099F4, symSize: 0x80 }
  - { offsetInCU: 0x10244, offset: 0x10244, size: 0x8, addend: 0x0, symName: __ZNSt3__114__unwrap_rangeB8ue170006IPjS1_EENS_4pairIT0_S3_EET_S5_, symObjAddr: 0x6774, symBinAddr: 0x100009AE4, symSize: 0x60 }
  - { offsetInCU: 0x10290, offset: 0x10290, size: 0x8, addend: 0x0, symName: __ZNSt3__135__uninitialized_allocator_copy_implB8ue170006INS_9allocatorIjEEjjjLPv0EEEPT2_RT_PT0_S9_S5_, symObjAddr: 0x67D4, symBinAddr: 0x100009B44, symSize: 0x38 }
  - { offsetInCU: 0x10311, offset: 0x10311, size: 0x8, addend: 0x0, symName: __ZNSt3__113__unwrap_iterB8ue170006IPjNS_18__unwrap_iter_implIS1_Lb1EEELi0EEEDTclsrT0_8__unwrapclsr3stdE7declvalIT_EEEES5_, symObjAddr: 0x680C, symBinAddr: 0x100009B7C, symSize: 0x24 }
  - { offsetInCU: 0x10355, offset: 0x10355, size: 0x8, addend: 0x0, symName: __ZNSt3__113__rewrap_iterB8ue170006IPjS1_NS_18__unwrap_iter_implIS1_Lb1EEEEET_S4_T0_, symObjAddr: 0x6830, symBinAddr: 0x100009BA0, symSize: 0x3C }
  - { offsetInCU: 0x103AA, offset: 0x103AA, size: 0x8, addend: 0x0, symName: __ZNSt3__19make_pairB8ue170006IPjS1_EENS_4pairINS_18__unwrap_ref_decayIT_E4typeENS3_IT0_E4typeEEEOS4_OS7_, symObjAddr: 0x686C, symBinAddr: 0x100009BDC, symSize: 0x38 }
  - { offsetInCU: 0x104FC, offset: 0x104FC, size: 0x8, addend: 0x0, symName: __ZNSt3__14copyB8ue170006IPjS1_EET0_T_S3_S2_, symObjAddr: 0x6914, symBinAddr: 0x100009C84, symSize: 0x40 }
  - { offsetInCU: 0x10556, offset: 0x10556, size: 0x8, addend: 0x0, symName: __ZNSt3__16__copyB8ue170006INS_17_ClassicAlgPolicyEPjS2_S2_EENS_4pairIT0_T2_EES4_T1_S5_, symObjAddr: 0x6954, symBinAddr: 0x100009CC4, symSize: 0x44 }
  - { offsetInCU: 0x105C2, offset: 0x105C2, size: 0x8, addend: 0x0, symName: __ZNSt3__123__dispatch_copy_or_moveB8ue170006INS_17_ClassicAlgPolicyENS_11__copy_loopIS1_EENS_14__copy_trivialEPjS5_S5_EENS_4pairIT2_T4_EES7_T3_S8_, symObjAddr: 0x6998, symBinAddr: 0x100009D08, symSize: 0x44 }
  - { offsetInCU: 0x10640, offset: 0x10640, size: 0x8, addend: 0x0, symName: __ZNSt3__121__unwrap_and_dispatchB8ue170006INS_10__overloadINS_11__copy_loopINS_17_ClassicAlgPolicyEEENS_14__copy_trivialEEEPjS7_S7_Li0EEENS_4pairIT0_T2_EES9_T1_SA_, symObjAddr: 0x69DC, symBinAddr: 0x100009D4C, symSize: 0xB4 }
  - { offsetInCU: 0x10750, offset: 0x10750, size: 0x8, addend: 0x0, symName: __ZNSt3__114__rewrap_rangeB8ue170006IPjS1_EET_S2_T0_, symObjAddr: 0x6AD8, symBinAddr: 0x100009E48, symSize: 0x2C }
  - { offsetInCU: 0x1079C, offset: 0x1079C, size: 0x8, addend: 0x0, symName: __ZNSt3__119__copy_trivial_implB8ue170006IjjEENS_4pairIPT_PT0_EES3_S3_S5_, symObjAddr: 0x6B04, symBinAddr: 0x100009E74, symSize: 0x80 }
  - { offsetInCU: 0x10804, offset: 0x10804, size: 0x8, addend: 0x0, symName: __ZNSt3__119__constexpr_memmoveB8ue170006IjjLi0EEEPT_S2_PT0_NS_15__element_countE, symObjAddr: 0x6B84, symBinAddr: 0x100009EF4, symSize: 0x64 }
  - { offsetInCU: 0x10872, offset: 0x10872, size: 0x8, addend: 0x0, symName: __ZNSt3__19make_pairB8ue170006IRPjS1_EENS_4pairINS_18__unwrap_ref_decayIT_E4typeENS4_IT0_E4typeEEEOS5_OS8_, symObjAddr: 0x6BE8, symBinAddr: 0x100009F58, symSize: 0x38 }
  - { offsetInCU: 0x10914, offset: 0x10914, size: 0x8, addend: 0x0, symName: __ZNSt3__130__uninitialized_allocator_copyB8ue170006INS_9allocatorI9CacheLineEEPS2_S4_S4_EET2_RT_T0_T1_S5_, symObjAddr: 0x7A74, symBinAddr: 0x10000ADE4, symSize: 0x80 }
  - { offsetInCU: 0x109B1, offset: 0x109B1, size: 0x8, addend: 0x0, symName: __ZNSt3__114__unwrap_rangeB8ue170006IP9CacheLineS2_EENS_4pairIT0_S4_EET_S6_, symObjAddr: 0x7AF4, symBinAddr: 0x10000AE64, symSize: 0x60 }
  - { offsetInCU: 0x109FD, offset: 0x109FD, size: 0x8, addend: 0x0, symName: __ZNSt3__135__uninitialized_allocator_copy_implB8ue170006INS_9allocatorI9CacheLineEEPS2_S4_S4_EET2_RT_T0_T1_S5_, symObjAddr: 0x7B54, symBinAddr: 0x10000AEC4, symSize: 0xF4 }
  - { offsetInCU: 0x10A9B, offset: 0x10A9B, size: 0x8, addend: 0x0, symName: __ZNSt3__113__unwrap_iterB8ue170006IP9CacheLineNS_18__unwrap_iter_implIS2_Lb1EEELi0EEEDTclsrT0_8__unwrapclsr3stdE7declvalIT_EEEES6_, symObjAddr: 0x7C48, symBinAddr: 0x10000AFB8, symSize: 0x24 }
  - { offsetInCU: 0x10ADF, offset: 0x10ADF, size: 0x8, addend: 0x0, symName: __ZNSt3__113__rewrap_iterB8ue170006IP9CacheLineS2_NS_18__unwrap_iter_implIS2_Lb1EEEEET_S5_T0_, symObjAddr: 0x7C6C, symBinAddr: 0x10000AFDC, symSize: 0x3C }
  - { offsetInCU: 0x10B34, offset: 0x10B34, size: 0x8, addend: 0x0, symName: __ZNSt3__19make_pairB8ue170006IP9CacheLineS2_EENS_4pairINS_18__unwrap_ref_decayIT_E4typeENS4_IT0_E4typeEEEOS5_OS8_, symObjAddr: 0x7CA8, symBinAddr: 0x10000B018, symSize: 0x38 }
  - { offsetInCU: 0x10C57, offset: 0x10C57, size: 0x8, addend: 0x0, symName: __ZNSt3__122__make_exception_guardB8ue170006INS_29_AllocatorDestroyRangeReverseINS_9allocatorI9CacheLineEEPS3_EEEENS_28__exception_guard_exceptionsIT_EES8_, symObjAddr: 0x7D50, symBinAddr: 0x10000B0C0, symSize: 0x4C }
  - { offsetInCU: 0x10C8D, offset: 0x10C8D, size: 0x8, addend: 0x0, symName: __ZNSt3__119__allocator_destroyB8ue170006INS_9allocatorI9CacheLineEENS_16reverse_iteratorIPS2_EES6_EEvRT_T0_T1_, symObjAddr: 0x7FE0, symBinAddr: 0x10000B350, symSize: 0x70 }
  - { offsetInCU: 0x10CF0, offset: 0x10CF0, size: 0x8, addend: 0x0, symName: __ZNSt3__1neB8ue170006IP9CacheLineS2_EEbRKNS_16reverse_iteratorIT_EERKNS3_IT0_EE, symObjAddr: 0x8084, symBinAddr: 0x10000B3F4, symSize: 0x48 }
  - { offsetInCU: 0x10D3C, offset: 0x10D3C, size: 0x8, addend: 0x0, symName: __ZNSt3__112__to_addressB8ue170006INS_16reverse_iteratorIP9CacheLineEEvEEu7__decayIDTclsr19__to_address_helperIT_EE6__callclsr3stdE7declvalIRKS5_EEEEES7_, symObjAddr: 0x80CC, symBinAddr: 0x10000B43C, symSize: 0x24 }
  - { offsetInCU: 0x10DEE, offset: 0x10DEE, size: 0x8, addend: 0x0, symName: __ZNSt3__13maxB8ue170006ImEERKT_S3_S3_, symObjAddr: 0x82EC, symBinAddr: 0x10000B65C, symSize: 0x2C }
  - { offsetInCU: 0x10E31, offset: 0x10E31, size: 0x8, addend: 0x0, symName: __ZNSt3__13maxB8ue170006ImNS_6__lessIvvEEEERKT_S5_S5_T0_, symObjAddr: 0x83B4, symBinAddr: 0x10000B724, symSize: 0x54 }
  - { offsetInCU: 0x10E8B, offset: 0x10E8B, size: 0x8, addend: 0x0, symName: __ZNSt3__119__allocate_at_leastB8ue170006INS_9allocatorINS_6vectorI9CacheLineNS1_IS3_EEEEEEEENS_19__allocation_resultINS_16allocator_traitsIT_E7pointerEEERS9_m, symObjAddr: 0x8524, symBinAddr: 0x10000B894, symSize: 0x40 }
  - { offsetInCU: 0x10ECE, offset: 0x10ECE, size: 0x8, addend: 0x0, symName: __ZNSt3__142__uninitialized_allocator_move_if_noexceptB8ue170006INS_9allocatorINS_6vectorI9CacheLineNS1_IS3_EEEEEENS_16reverse_iteratorIPS5_EES9_S9_EET2_RT_T0_T1_SA_, symObjAddr: 0x87B0, symBinAddr: 0x10000BB20, symSize: 0x12C }
  - { offsetInCU: 0x10F6E, offset: 0x10F6E, size: 0x8, addend: 0x0, symName: __ZNSt3__14swapB8ue170006IPNS_6vectorI9CacheLineNS_9allocatorIS2_EEEEEENS_9enable_ifIXaasr21is_move_constructibleIT_EE5valuesr18is_move_assignableIS8_EE5valueEvE4typeERS8_SB_, symObjAddr: 0x8928, symBinAddr: 0x10000BC98, symSize: 0x3C }
  - { offsetInCU: 0x10FBF, offset: 0x10FBF, size: 0x8, addend: 0x0, symName: __ZNSt3__122__make_exception_guardB8ue170006INS_29_AllocatorDestroyRangeReverseINS_9allocatorINS_6vectorI9CacheLineNS2_IS4_EEEEEENS_16reverse_iteratorIPS6_EEEEEENS_28__exception_guard_exceptionsIT_EESD_, symObjAddr: 0x8A2C, symBinAddr: 0x10000BD9C, symSize: 0x4C }
  - { offsetInCU: 0x10FF5, offset: 0x10FF5, size: 0x8, addend: 0x0, symName: __ZNSt3__1neB8ue170006IPNS_6vectorI9CacheLineNS_9allocatorIS2_EEEES6_EEbRKNS_16reverse_iteratorIT_EERKNS7_IT0_EE, symObjAddr: 0x8ABC, symBinAddr: 0x10000BE2C, symSize: 0x48 }
  - { offsetInCU: 0x11041, offset: 0x11041, size: 0x8, addend: 0x0, symName: __ZNSt3__112__to_addressB8ue170006INS_16reverse_iteratorIPNS_6vectorI9CacheLineNS_9allocatorIS3_EEEEEEvEEu7__decayIDTclsr19__to_address_helperIT_EE6__callclsr3stdE7declvalIRKS9_EEEEESB_, symObjAddr: 0x8B38, symBinAddr: 0x10000BEA8, symSize: 0x24 }
  - { offsetInCU: 0x110A0, offset: 0x110A0, size: 0x8, addend: 0x0, symName: __ZNSt3__119__allocator_destroyB8ue170006INS_9allocatorINS_6vectorI9CacheLineNS1_IS3_EEEEEENS_16reverse_iteratorINS7_IPS5_EEEESA_EEvRT_T0_T1_, symObjAddr: 0x8F10, symBinAddr: 0x10000C280, symSize: 0x70 }
  - { offsetInCU: 0x11105, offset: 0x11105, size: 0x8, addend: 0x0, symName: __ZNSt3__1neB8ue170006INS_16reverse_iteratorIPNS_6vectorI9CacheLineNS_9allocatorIS3_EEEEEES8_EEbRKNS1_IT_EERKNS1_IT0_EE, symObjAddr: 0x8FBC, symBinAddr: 0x10000C32C, symSize: 0x60 }
  - { offsetInCU: 0x11151, offset: 0x11151, size: 0x8, addend: 0x0, symName: __ZNSt3__112__to_addressB8ue170006INS_16reverse_iteratorINS1_IPNS_6vectorI9CacheLineNS_9allocatorIS3_EEEEEEEEvEEu7__decayIDTclsr19__to_address_helperIT_EE6__callclsr3stdE7declvalIRKSA_EEEEESC_, symObjAddr: 0x901C, symBinAddr: 0x10000C38C, symSize: 0x24 }
  - { offsetInCU: 0x111B0, offset: 0x111B0, size: 0x8, addend: 0x0, symName: __ZNSt3__122__make_exception_guardB8ue170006INS_6vectorINS1_INS_4pairIcjEENS_9allocatorIS3_EEEENS4_IS6_EEE16__destroy_vectorEEENS_28__exception_guard_exceptionsIT_EESB_, symObjAddr: 0x9564, symBinAddr: 0x10000C8D4, symSize: 0x40 }
  - { offsetInCU: 0x111E5, offset: 0x111E5, size: 0x8, addend: 0x0, symName: __ZNSt3__119__allocate_at_leastB8ue170006INS_9allocatorINS_6vectorINS_4pairIcjEENS1_IS4_EEEEEEEENS_19__allocation_resultINS_16allocator_traitsIT_E7pointerEEERSA_m, symObjAddr: 0x9958, symBinAddr: 0x10000CCC8, symSize: 0x40 }
  - { offsetInCU: 0x11228, offset: 0x11228, size: 0x8, addend: 0x0, symName: __ZNSt3__112__to_addressB8ue170006INS_6vectorINS_4pairIcjEENS_9allocatorIS3_EEEEEEPT_S8_, symObjAddr: 0x9CA0, symBinAddr: 0x10000D010, symSize: 0x14 }
  - { offsetInCU: 0x1125D, offset: 0x1125D, size: 0x8, addend: 0x0, symName: __ZNSt3__112__to_addressB8ue170006INS_4pairIcjEEEEPT_S4_, symObjAddr: 0xA630, symBinAddr: 0x10000D9A0, symSize: 0x14 }
  - { offsetInCU: 0x11292, offset: 0x11292, size: 0x8, addend: 0x0, symName: __ZNSt3__112__to_addressB8ue170006IcEEPT_S2_, symObjAddr: 0xA8E8, symBinAddr: 0x10000DC58, symSize: 0x14 }
  - { offsetInCU: 0x114FC, offset: 0x114FC, size: 0x8, addend: 0x0, symName: __ZNSt3__14copyB8ue170006IPKcPcEET0_T_S5_S4_, symObjAddr: 0xB100, symBinAddr: 0x10000E470, symSize: 0x40 }
  - { offsetInCU: 0x11556, offset: 0x11556, size: 0x8, addend: 0x0, symName: __ZNSt3__16__copyB8ue170006INS_17_ClassicAlgPolicyEPKcS3_PcEENS_4pairIT0_T2_EES6_T1_S7_, symObjAddr: 0xB140, symBinAddr: 0x10000E4B0, symSize: 0x44 }
  - { offsetInCU: 0x115C2, offset: 0x115C2, size: 0x8, addend: 0x0, symName: __ZNSt3__123__dispatch_copy_or_moveB8ue170006INS_17_ClassicAlgPolicyENS_11__copy_loopIS1_EENS_14__copy_trivialEPKcS6_PcEENS_4pairIT2_T4_EES9_T3_SA_, symObjAddr: 0xB184, symBinAddr: 0x10000E4F4, symSize: 0x44 }
  - { offsetInCU: 0x11640, offset: 0x11640, size: 0x8, addend: 0x0, symName: __ZNSt3__121__unwrap_and_dispatchB8ue170006INS_10__overloadINS_11__copy_loopINS_17_ClassicAlgPolicyEEENS_14__copy_trivialEEEPKcS8_PcLi0EEENS_4pairIT0_T2_EESB_T1_SC_, symObjAddr: 0xB1C8, symBinAddr: 0x10000E538, symSize: 0xB4 }
  - { offsetInCU: 0x116CE, offset: 0x116CE, size: 0x8, addend: 0x0, symName: __ZNSt3__114__unwrap_rangeB8ue170006IPKcS2_EENS_4pairIT0_S4_EET_S6_, symObjAddr: 0xB27C, symBinAddr: 0x10000E5EC, symSize: 0x60 }
  - { offsetInCU: 0x1181D, offset: 0x1181D, size: 0x8, addend: 0x0, symName: __ZNSt3__113__unwrap_iterB8ue170006IPcNS_18__unwrap_iter_implIS1_Lb1EEELi0EEEDTclsrT0_8__unwrapclsr3stdE7declvalIT_EEEES5_, symObjAddr: 0xB324, symBinAddr: 0x10000E694, symSize: 0x24 }
  - { offsetInCU: 0x11861, offset: 0x11861, size: 0x8, addend: 0x0, symName: __ZNSt3__19make_pairB8ue170006IPKcPcEENS_4pairINS_18__unwrap_ref_decayIT_E4typeENS5_IT0_E4typeEEEOS6_OS9_, symObjAddr: 0xB348, symBinAddr: 0x10000E6B8, symSize: 0x38 }
  - { offsetInCU: 0x118B0, offset: 0x118B0, size: 0x8, addend: 0x0, symName: __ZNSt3__114__rewrap_rangeB8ue170006IPKcS2_EET_S3_T0_, symObjAddr: 0xB380, symBinAddr: 0x10000E6F0, symSize: 0x2C }
  - { offsetInCU: 0x118FC, offset: 0x118FC, size: 0x8, addend: 0x0, symName: __ZNSt3__113__rewrap_iterB8ue170006IPcS1_NS_18__unwrap_iter_implIS1_Lb1EEEEET_S4_T0_, symObjAddr: 0xB3AC, symBinAddr: 0x10000E71C, symSize: 0x3C }
  - { offsetInCU: 0x11951, offset: 0x11951, size: 0x8, addend: 0x0, symName: __ZNSt3__19make_pairB8ue170006IPKcS2_EENS_4pairINS_18__unwrap_ref_decayIT_E4typeENS4_IT0_E4typeEEEOS5_OS8_, symObjAddr: 0xB3E8, symBinAddr: 0x10000E758, symSize: 0x38 }
  - { offsetInCU: 0x119A0, offset: 0x119A0, size: 0x8, addend: 0x0, symName: __ZNSt3__113__unwrap_iterB8ue170006IPKcNS_18__unwrap_iter_implIS2_Lb1EEELi0EEEDTclsrT0_8__unwrapclsr3stdE7declvalIT_EEEES6_, symObjAddr: 0xB420, symBinAddr: 0x10000E790, symSize: 0x24 }
  - { offsetInCU: 0x11B0B, offset: 0x11B0B, size: 0x8, addend: 0x0, symName: __ZNSt3__119__copy_trivial_implB8ue170006IKccEENS_4pairIPT_PT0_EES4_S4_S6_, symObjAddr: 0xB4D8, symBinAddr: 0x10000E848, symSize: 0x78 }
  - { offsetInCU: 0x11B73, offset: 0x11B73, size: 0x8, addend: 0x0, symName: __ZNSt3__119__constexpr_memmoveB8ue170006IcKcLi0EEEPT_S3_PT0_NS_15__element_countE, symObjAddr: 0xB550, symBinAddr: 0x10000E8C0, symSize: 0x64 }
  - { offsetInCU: 0x11BE1, offset: 0x11BE1, size: 0x8, addend: 0x0, symName: __ZNSt3__19make_pairB8ue170006IRPKcPcEENS_4pairINS_18__unwrap_ref_decayIT_E4typeENS6_IT0_E4typeEEEOS7_OSA_, symObjAddr: 0xB5B4, symBinAddr: 0x10000E924, symSize: 0x38 }
  - { offsetInCU: 0x11C83, offset: 0x11C83, size: 0x8, addend: 0x0, symName: __ZNSt3__113__rewrap_iterB8ue170006IPKcS2_NS_18__unwrap_iter_implIS2_Lb1EEEEET_S5_T0_, symObjAddr: 0xB6F0, symBinAddr: 0x10000EA60, symSize: 0x3C }
  - { offsetInCU: 0x11CD8, offset: 0x11CD8, size: 0x8, addend: 0x0, symName: __ZNSt3__16fill_nB8ue170006IPcmcEET_S2_T0_RKT1_, symObjAddr: 0xB7BC, symBinAddr: 0x10000EB2C, symSize: 0x44 }
  - { offsetInCU: 0x11D3B, offset: 0x11D3B, size: 0x8, addend: 0x0, symName: __ZNSt3__18__fill_nB8ue170006IPcmcEET_S2_T0_RKT1_, symObjAddr: 0xB800, symBinAddr: 0x10000EB70, symSize: 0x64 }
  - { offsetInCU: 0x11D9E, offset: 0x11D9E, size: 0x8, addend: 0x0, symName: __ZNSt3__121__convert_to_integralB8ue170006Em, symObjAddr: 0xB864, symBinAddr: 0x10000EBD4, symSize: 0x14 }
  - { offsetInCU: 0x11DCA, offset: 0x11DCA, size: 0x8, addend: 0x0, symName: __ZNSt3__17getlineB8ue170006IcNS_11char_traitsIcEENS_9allocatorIcEEEERNS_13basic_istreamIT_T0_EES9_RNS_12basic_stringIS6_S7_T1_EES6_, symObjAddr: 0xBB08, symBinAddr: 0x10000EE78, symSize: 0x238 }
  - { offsetInCU: 0x11E88, offset: 0x11E88, size: 0x8, addend: 0x0, symName: __ZNSt3__119__allocate_at_leastB8ue170006INS_9allocatorINS_4pairIcjEEEEEENS_19__allocation_resultINS_16allocator_traitsIT_E7pointerEEERS7_m, symObjAddr: 0xC8B0, symBinAddr: 0x10000FC20, symSize: 0x40 }
  - { offsetInCU: 0x11ECB, offset: 0x11ECB, size: 0x8, addend: 0x0, symName: __ZNSt3__142__uninitialized_allocator_move_if_noexceptB8ue170006INS_9allocatorINS_4pairIcjEEEENS_16reverse_iteratorIPS3_EES7_S7_EET2_RT_T0_T1_S8_, symObjAddr: 0xCA64, symBinAddr: 0x10000FDD4, symSize: 0x12C }
  - { offsetInCU: 0x11F6B, offset: 0x11F6B, size: 0x8, addend: 0x0, symName: __ZNSt3__14swapB8ue170006IPNS_4pairIcjEEEENS_9enable_ifIXaasr21is_move_constructibleIT_EE5valuesr18is_move_assignableIS5_EE5valueEvE4typeERS5_S8_, symObjAddr: 0xCBDC, symBinAddr: 0x10000FF4C, symSize: 0x3C }
  - { offsetInCU: 0x11FBC, offset: 0x11FBC, size: 0x8, addend: 0x0, symName: __ZNSt3__122__make_exception_guardB8ue170006INS_29_AllocatorDestroyRangeReverseINS_9allocatorINS_4pairIcjEEEENS_16reverse_iteratorIPS4_EEEEEENS_28__exception_guard_exceptionsIT_EESB_, symObjAddr: 0xCCC4, symBinAddr: 0x100010034, symSize: 0x4C }
  - { offsetInCU: 0x11FF2, offset: 0x11FF2, size: 0x8, addend: 0x0, symName: __ZNSt3__1neB8ue170006IPNS_4pairIcjEES3_EEbRKNS_16reverse_iteratorIT_EERKNS4_IT0_EE, symObjAddr: 0xCD54, symBinAddr: 0x1000100C4, symSize: 0x48 }
  - { offsetInCU: 0x1203E, offset: 0x1203E, size: 0x8, addend: 0x0, symName: __ZNSt3__112__to_addressB8ue170006INS_16reverse_iteratorIPNS_4pairIcjEEEEvEEu7__decayIDTclsr19__to_address_helperIT_EE6__callclsr3stdE7declvalIRKS6_EEEEES8_, symObjAddr: 0xCDD0, symBinAddr: 0x100010140, symSize: 0x24 }
  - { offsetInCU: 0x1209D, offset: 0x1209D, size: 0x8, addend: 0x0, symName: __ZNSt3__119__allocator_destroyB8ue170006INS_9allocatorINS_4pairIcjEEEENS_16reverse_iteratorINS5_IPS3_EEEES8_EEvRT_T0_T1_, symObjAddr: 0xD0A8, symBinAddr: 0x100010418, symSize: 0x70 }
  - { offsetInCU: 0x12102, offset: 0x12102, size: 0x8, addend: 0x0, symName: __ZNSt3__1neB8ue170006INS_16reverse_iteratorIPNS_4pairIcjEEEES5_EEbRKNS1_IT_EERKNS1_IT0_EE, symObjAddr: 0xD154, symBinAddr: 0x1000104C4, symSize: 0x60 }
  - { offsetInCU: 0x1214E, offset: 0x1214E, size: 0x8, addend: 0x0, symName: __ZNSt3__112__to_addressB8ue170006INS_16reverse_iteratorINS1_IPNS_4pairIcjEEEEEEvEEu7__decayIDTclsr19__to_address_helperIT_EE6__callclsr3stdE7declvalIRKS7_EEEEES9_, symObjAddr: 0xD1B4, symBinAddr: 0x100010524, symSize: 0x24 }
  - { offsetInCU: 0x12886, offset: 0x12886, size: 0x8, addend: 0x0, symName: __ZSt28__throw_bad_array_new_lengthB8ue170006v, symObjAddr: 0x2E64, symBinAddr: 0x1000061D4, symSize: 0x34 }
  - { offsetInCU: 0x12EC7, offset: 0x12EC7, size: 0x8, addend: 0x0, symName: _global_stats, symObjAddr: 0x742C8, symBinAddr: 0x100018018, symSize: 0x0 }
  - { offsetInCU: 0x12F0A, offset: 0x12F0A, size: 0x8, addend: 0x0, symName: _current_cycle, symObjAddr: 0x742E0, symBinAddr: 0x100018030, symSize: 0x0 }
  - { offsetInCU: 0x13622, offset: 0x13622, size: 0x8, addend: 0x0, symName: __ZNSt3__16vectorINS0_I9CacheLineNS_9allocatorIS1_EEEENS2_IS4_EEE26__swap_out_circular_bufferERNS_14__split_bufferIS4_RS5_EE, symObjAddr: 0x7534, symBinAddr: 0x10000A8A4, symSize: 0x110 }
  - { offsetInCU: 0x137CB, offset: 0x137CB, size: 0x8, addend: 0x0, symName: __ZNSt3__16vectorINS_4pairIcjEENS_9allocatorIS2_EEE26__swap_out_circular_bufferERNS_14__split_bufferIS2_RS4_EE, symObjAddr: 0xC550, symBinAddr: 0x10000F8C0, symSize: 0x110 }
  - { offsetInCU: 0x15B84, offset: 0x15B84, size: 0x8, addend: 0x0, symName: __ZNSt3__16vectorI5CacheNS_9allocatorIS1_EEEC1Em, symObjAddr: 0x0, symBinAddr: 0x100003370, symSize: 0x34 }
  - { offsetInCU: 0x15BBE, offset: 0x15BBE, size: 0x8, addend: 0x0, symName: __ZNSt3__16vectorI5CacheNS_9allocatorIS1_EEED1B8ue170006Ev, symObjAddr: 0x34, symBinAddr: 0x1000033A4, symSize: 0x2C }
  - { offsetInCU: 0x15BE7, offset: 0x15BE7, size: 0x8, addend: 0x0, symName: __Z8simulateRKNSt3__16vectorINS0_INS_4pairIcjEENS_9allocatorIS2_EEEENS3_IS5_EEEE, symObjAddr: 0x60, symBinAddr: 0x1000033D0, symSize: 0x1A8 }
  - { offsetInCU: 0x15C40, offset: 0x15C40, size: 0x8, addend: 0x0, symName: __ZNSt3__16vectorImNS_9allocatorImEEEC1EmRKm, symObjAddr: 0x208, symBinAddr: 0x100003578, symSize: 0x3C }
  - { offsetInCU: 0x15C89, offset: 0x15C89, size: 0x8, addend: 0x0, symName: __ZNSt3__16vectorImNS_9allocatorImEEEixB8ue170006Em, symObjAddr: 0x244, symBinAddr: 0x1000035B4, symSize: 0x24 }
  - { offsetInCU: 0x15CBF, offset: 0x15CBF, size: 0x8, addend: 0x0, symName: __ZNKSt3__16vectorINS0_INS_4pairIcjEENS_9allocatorIS2_EEEENS3_IS5_EEEixB8ue170006Em, symObjAddr: 0x268, symBinAddr: 0x1000035D8, symSize: 0x2C }
  - { offsetInCU: 0x15CF5, offset: 0x15CF5, size: 0x8, addend: 0x0, symName: __ZNKSt3__16vectorINS_4pairIcjEENS_9allocatorIS2_EEE4sizeB8ue170006Ev, symObjAddr: 0x294, symBinAddr: 0x100003604, symSize: 0x28 }
  - { offsetInCU: 0x15D1A, offset: 0x15D1A, size: 0x8, addend: 0x0, symName: __ZNKSt3__16vectorINS_4pairIcjEENS_9allocatorIS2_EEEixB8ue170006Em, symObjAddr: 0x2BC, symBinAddr: 0x10000362C, symSize: 0x24 }
  - { offsetInCU: 0x15D50, offset: 0x15D50, size: 0x8, addend: 0x0, symName: __ZNSt3__16vectorImNS_9allocatorImEEED1B8ue170006Ev, symObjAddr: 0x2E0, symBinAddr: 0x100003650, symSize: 0x2C }
  - { offsetInCU: 0x15D79, offset: 0x15D79, size: 0x8, addend: 0x0, symName: _main, symObjAddr: 0x30C, symBinAddr: 0x10000367C, symSize: 0xB30 }
  - { offsetInCU: 0x15EFF, offset: 0x15EFF, size: 0x8, addend: 0x0, symName: __ZNSt3__112basic_stringIcNS_11char_traitsIcEENS_9allocatorIcEEEC1B8ue170006Ev, symObjAddr: 0xEFC, symBinAddr: 0x10000426C, symSize: 0x2C }
  - { offsetInCU: 0x15F28, offset: 0x15F28, size: 0x8, addend: 0x0, symName: __ZNSt3__112basic_stringIcNS_11char_traitsIcEENS_9allocatorIcEEEaSB8ue170006EPKc, symObjAddr: 0xF28, symBinAddr: 0x100004298, symSize: 0x2C }
  - { offsetInCU: 0x15F5C, offset: 0x15F5C, size: 0x8, addend: 0x0, symName: __ZNSt3__16vectorI5CacheNS_9allocatorIS1_EEEixB8ue170006Em, symObjAddr: 0xF9C, symBinAddr: 0x10000430C, symSize: 0x2C }
  - { offsetInCU: 0x15F92, offset: 0x15F92, size: 0x8, addend: 0x0, symName: __ZNSt3__16vectorIjNS_9allocatorIjEEEC1B8ue170006Ev, symObjAddr: 0xFC8, symBinAddr: 0x100004338, symSize: 0x2C }
  - { offsetInCU: 0x15FBB, offset: 0x15FBB, size: 0x8, addend: 0x0, symName: __ZNSt3__16vectorINS0_I9CacheLineNS_9allocatorIS1_EEEENS2_IS4_EEE6resizeEmRKS4_, symObjAddr: 0xFF4, symBinAddr: 0x100004364, symSize: 0xA4 }
  - { offsetInCU: 0x1600E, offset: 0x1600E, size: 0x8, addend: 0x0, symName: __ZNSt3__16vectorI9CacheLineNS_9allocatorIS1_EEEC1EmRKS1_, symObjAddr: 0x1098, symBinAddr: 0x100004408, symSize: 0x3C }
  - { offsetInCU: 0x16057, offset: 0x16057, size: 0x8, addend: 0x0, symName: __ZNSt3__16vectorI9CacheLineNS_9allocatorIS1_EEED1B8ue170006Ev, symObjAddr: 0x10D4, symBinAddr: 0x100004444, symSize: 0x2C }
  - { offsetInCU: 0x16085, offset: 0x16085, size: 0x8, addend: 0x0, symName: __ZN9CacheLineD1Ev, symObjAddr: 0x1100, symBinAddr: 0x100004470, symSize: 0x2C }
  - { offsetInCU: 0x160B0, offset: 0x160B0, size: 0x8, addend: 0x0, symName: __ZNSt3__16vectorINS0_INS_4pairIcjEENS_9allocatorIS2_EEEENS3_IS5_EEEC1Em, symObjAddr: 0x112C, symBinAddr: 0x10000449C, symSize: 0x34 }
  - { offsetInCU: 0x16201, offset: 0x16201, size: 0x8, addend: 0x0, symName: __ZNSt3__114basic_ifstreamIcNS_11char_traitsIcEEEC1ERKNS_12basic_stringIcS2_NS_9allocatorIcEEEEj, symObjAddr: 0x12FC, symBinAddr: 0x10000466C, symSize: 0x16C }
  - { offsetInCU: 0x1624A, offset: 0x1624A, size: 0x8, addend: 0x0, symName: __ZNKSt3__19basic_iosIcNS_11char_traitsIcEEEntB8ue170006Ev, symObjAddr: 0x1468, symBinAddr: 0x1000047D8, symSize: 0x28 }
  - { offsetInCU: 0x1626F, offset: 0x1626F, size: 0x8, addend: 0x0, symName: __ZNKSt3__19basic_iosIcNS_11char_traitsIcEEEcvbB8ue170006Ev, symObjAddr: 0x1538, symBinAddr: 0x1000048A8, symSize: 0x2C }
  - { offsetInCU: 0x162E4, offset: 0x162E4, size: 0x8, addend: 0x0, symName: __ZNSt3__119basic_istringstreamIcNS_11char_traitsIcEENS_9allocatorIcEEEC1B8ue170006ERKNS_12basic_stringIcS2_S4_EEj, symObjAddr: 0x1564, symBinAddr: 0x1000048D4, symSize: 0xFC }
  - { offsetInCU: 0x1632B, offset: 0x1632B, size: 0x8, addend: 0x0, symName: __ZNSt3__113basic_istreamIcNS_11char_traitsIcEEErsB8ue170006EPFRNS_8ios_baseES5_E, symObjAddr: 0x17EC, symBinAddr: 0x100004B5C, symSize: 0x40 }
  - { offsetInCU: 0x1635E, offset: 0x1635E, size: 0x8, addend: 0x0, symName: __ZNSt3__16vectorINS0_INS_4pairIcjEENS_9allocatorIS2_EEEENS3_IS5_EEEixB8ue170006Em, symObjAddr: 0x185C, symBinAddr: 0x100004BCC, symSize: 0x2C }
  - { offsetInCU: 0x16394, offset: 0x16394, size: 0x8, addend: 0x0, symName: __ZNSt3__16vectorINS_4pairIcjEENS_9allocatorIS2_EEE12emplace_backIJRcRjEEEvDpOT_, symObjAddr: 0x1888, symBinAddr: 0x100004BF8, symSize: 0x78 }
  - { offsetInCU: 0x163ED, offset: 0x163ED, size: 0x8, addend: 0x0, symName: __ZNSt3__119basic_istringstreamIcNS_11char_traitsIcEENS_9allocatorIcEEED1Ev, symObjAddr: 0x1900, symBinAddr: 0x100004C70, symSize: 0x40 }
  - { offsetInCU: 0x1641E, offset: 0x1641E, size: 0x8, addend: 0x0, symName: __ZNSt3__114basic_ifstreamIcNS_11char_traitsIcEEED1Ev, symObjAddr: 0x1940, symBinAddr: 0x100004CB0, symSize: 0x40 }
  - { offsetInCU: 0x16463, offset: 0x16463, size: 0x8, addend: 0x0, symName: __ZNSt3__114basic_ofstreamIcNS_11char_traitsIcEEEC1ERKNS_12basic_stringIcS2_NS_9allocatorIcEEEEj, symObjAddr: 0x1980, symBinAddr: 0x100004CF0, symSize: 0x16C }
  - { offsetInCU: 0x164B1, offset: 0x164B1, size: 0x8, addend: 0x0, symName: __ZNSt3__114basic_ofstreamIcNS_11char_traitsIcEEED1Ev, symObjAddr: 0x1AEC, symBinAddr: 0x100004E5C, symSize: 0x40 }
  - { offsetInCU: 0x164DD, offset: 0x164DD, size: 0x8, addend: 0x0, symName: __ZNSt3__16vectorINS0_INS_4pairIcjEENS_9allocatorIS2_EEEENS3_IS5_EEED1B8ue170006Ev, symObjAddr: 0x1B2C, symBinAddr: 0x100004E9C, symSize: 0x2C }
  - { offsetInCU: 0x16506, offset: 0x16506, size: 0x8, addend: 0x0, symName: __ZN9CacheLineD2Ev, symObjAddr: 0x1B58, symBinAddr: 0x100004EC8, symSize: 0x30 }
  - { offsetInCU: 0x16531, offset: 0x16531, size: 0x8, addend: 0x0, symName: __ZNSt3__16vectorIjNS_9allocatorIjEEED1B8ue170006Ev, symObjAddr: 0x1B88, symBinAddr: 0x100004EF8, symSize: 0x2C }
  - { offsetInCU: 0x1655A, offset: 0x1655A, size: 0x8, addend: 0x0, symName: __ZNSt3__16vectorIjNS_9allocatorIjEEED2B8ue170006Ev, symObjAddr: 0x1BB4, symBinAddr: 0x100004F24, symSize: 0x44 }
  - { offsetInCU: 0x16583, offset: 0x16583, size: 0x8, addend: 0x0, symName: __ZNSt3__16vectorIjNS_9allocatorIjEEE16__destroy_vectorC1B8ue170006ERS3_, symObjAddr: 0x1BF8, symBinAddr: 0x100004F68, symSize: 0x34 }
  - { offsetInCU: 0x165BB, offset: 0x165BB, size: 0x8, addend: 0x0, symName: __ZNSt3__16vectorIjNS_9allocatorIjEEE16__destroy_vectorclB8ue170006Ev, symObjAddr: 0x1C38, symBinAddr: 0x100004FA8, symSize: 0x90 }
  - { offsetInCU: 0x165E0, offset: 0x165E0, size: 0x8, addend: 0x0, symName: __ZNSt3__16vectorIjNS_9allocatorIjEEE16__destroy_vectorC2B8ue170006ERS3_, symObjAddr: 0x1CC8, symBinAddr: 0x100005038, symSize: 0x20 }
  - { offsetInCU: 0x16618, offset: 0x16618, size: 0x8, addend: 0x0, symName: __ZNSt3__16vectorIjNS_9allocatorIjEEE7__clearB8ue170006Ev, symObjAddr: 0x1CE8, symBinAddr: 0x100005058, symSize: 0x28 }
  - { offsetInCU: 0x1663D, offset: 0x1663D, size: 0x8, addend: 0x0, symName: __ZNKSt3__16vectorIjNS_9allocatorIjEEE17__annotate_deleteB8ue170006Ev, symObjAddr: 0x1D10, symBinAddr: 0x100005080, symSize: 0xB8 }
  - { offsetInCU: 0x16662, offset: 0x16662, size: 0x8, addend: 0x0, symName: __ZNSt3__116allocator_traitsINS_9allocatorIjEEE10deallocateB8ue170006ERS2_Pjm, symObjAddr: 0x1DC8, symBinAddr: 0x100005138, symSize: 0x34 }
  - { offsetInCU: 0x166A4, offset: 0x166A4, size: 0x8, addend: 0x0, symName: __ZNSt3__16vectorIjNS_9allocatorIjEEE7__allocB8ue170006Ev, symObjAddr: 0x1DFC, symBinAddr: 0x10000516C, symSize: 0x28 }
  - { offsetInCU: 0x166C9, offset: 0x166C9, size: 0x8, addend: 0x0, symName: __ZNKSt3__16vectorIjNS_9allocatorIjEEE8capacityB8ue170006Ev, symObjAddr: 0x1E24, symBinAddr: 0x100005194, symSize: 0x40 }
  - { offsetInCU: 0x166EE, offset: 0x166EE, size: 0x8, addend: 0x0, symName: __ZNSt3__16vectorIjNS_9allocatorIjEEE22__base_destruct_at_endB8ue170006EPj, symObjAddr: 0x1E64, symBinAddr: 0x1000051D4, symSize: 0x8C }
  - { offsetInCU: 0x16731, offset: 0x16731, size: 0x8, addend: 0x0, symName: __ZNSt3__116allocator_traitsINS_9allocatorIjEEE7destroyB8ue170006IjvEEvRS2_PT_, symObjAddr: 0x1EF0, symBinAddr: 0x100005260, symSize: 0x2C }
  - { offsetInCU: 0x1676E, offset: 0x1676E, size: 0x8, addend: 0x0, symName: __ZNSt3__19allocatorIjE7destroyB8ue170006EPj, symObjAddr: 0x1F30, symBinAddr: 0x1000052A0, symSize: 0x14 }
  - { offsetInCU: 0x167A1, offset: 0x167A1, size: 0x8, addend: 0x0, symName: __ZNKSt3__16vectorIjNS_9allocatorIjEEE31__annotate_contiguous_containerB8ue170006EPKvS5_S5_S5_, symObjAddr: 0x1F44, symBinAddr: 0x1000052B4, symSize: 0x20 }
  - { offsetInCU: 0x167F2, offset: 0x167F2, size: 0x8, addend: 0x0, symName: __ZNKSt3__16vectorIjNS_9allocatorIjEEE4dataB8ue170006Ev, symObjAddr: 0x1F64, symBinAddr: 0x1000052D4, symSize: 0x28 }
  - { offsetInCU: 0x16817, offset: 0x16817, size: 0x8, addend: 0x0, symName: __ZNKSt3__16vectorIjNS_9allocatorIjEEE4sizeB8ue170006Ev, symObjAddr: 0x1F8C, symBinAddr: 0x1000052FC, symSize: 0x28 }
  - { offsetInCU: 0x1683C, offset: 0x1683C, size: 0x8, addend: 0x0, symName: __ZNSt3__19allocatorIjE10deallocateB8ue170006EPjm, symObjAddr: 0x1FB4, symBinAddr: 0x100005324, symSize: 0x40 }
  - { offsetInCU: 0x1687D, offset: 0x1687D, size: 0x8, addend: 0x0, symName: __ZNSt3__117__compressed_pairIPjNS_9allocatorIjEEE6secondB8ue170006Ev, symObjAddr: 0x2070, symBinAddr: 0x1000053E0, symSize: 0x24 }
  - { offsetInCU: 0x168A2, offset: 0x168A2, size: 0x8, addend: 0x0, symName: __ZNSt3__122__compressed_pair_elemINS_9allocatorIjEELi1ELb1EE5__getB8ue170006Ev, symObjAddr: 0x2094, symBinAddr: 0x100005404, symSize: 0x14 }
  - { offsetInCU: 0x168C7, offset: 0x168C7, size: 0x8, addend: 0x0, symName: __ZNKSt3__16vectorIjNS_9allocatorIjEEE9__end_capB8ue170006Ev, symObjAddr: 0x20A8, symBinAddr: 0x100005418, symSize: 0x28 }
  - { offsetInCU: 0x168EC, offset: 0x168EC, size: 0x8, addend: 0x0, symName: __ZNKSt3__117__compressed_pairIPjNS_9allocatorIjEEE5firstB8ue170006Ev, symObjAddr: 0x20D0, symBinAddr: 0x100005440, symSize: 0x24 }
  - { offsetInCU: 0x16911, offset: 0x16911, size: 0x8, addend: 0x0, symName: __ZNKSt3__122__compressed_pair_elemIPjLi0ELb0EE5__getB8ue170006Ev, symObjAddr: 0x20F4, symBinAddr: 0x100005464, symSize: 0x14 }
  - { offsetInCU: 0x16936, offset: 0x16936, size: 0x8, addend: 0x0, symName: __ZNSt3__18ios_base4setfB8ue170006Ejj, symObjAddr: 0x2108, symBinAddr: 0x100005478, symSize: 0x5C }
  - { offsetInCU: 0x16989, offset: 0x16989, size: 0x8, addend: 0x0, symName: __ZNSt3__18ios_base6unsetfB8ue170006Ej, symObjAddr: 0x2164, symBinAddr: 0x1000054D4, symSize: 0x28 }
  - { offsetInCU: 0x169BF, offset: 0x169BF, size: 0x8, addend: 0x0, symName: __ZNSt3__119basic_istringstreamIcNS_11char_traitsIcEENS_9allocatorIcEEED2Ev, symObjAddr: 0x218C, symBinAddr: 0x1000054FC, symSize: 0x64 }
  - { offsetInCU: 0x169F7, offset: 0x169F7, size: 0x8, addend: 0x0, symName: __ZTv0_n24_NSt3__119basic_istringstreamIcNS_11char_traitsIcEENS_9allocatorIcEEED1Ev, symObjAddr: 0x21F0, symBinAddr: 0x100005560, symSize: 0x28 }
  - { offsetInCU: 0x16A13, offset: 0x16A13, size: 0x8, addend: 0x0, symName: __ZNSt3__115basic_stringbufIcNS_11char_traitsIcEENS_9allocatorIcEEED1Ev, symObjAddr: 0x2218, symBinAddr: 0x100005588, symSize: 0x2C }
  - { offsetInCU: 0x16A3F, offset: 0x16A3F, size: 0x8, addend: 0x0, symName: __ZNSt3__115basic_stringbufIcNS_11char_traitsIcEENS_9allocatorIcEEED2Ev, symObjAddr: 0x2244, symBinAddr: 0x1000055B4, symSize: 0x48 }
  - { offsetInCU: 0x16A6B, offset: 0x16A6B, size: 0x8, addend: 0x0, symName: __ZNSt3__114basic_ifstreamIcNS_11char_traitsIcEEED2Ev, symObjAddr: 0x228C, symBinAddr: 0x1000055FC, symSize: 0x64 }
  - { offsetInCU: 0x16AA3, offset: 0x16AA3, size: 0x8, addend: 0x0, symName: __ZTv0_n24_NSt3__114basic_ifstreamIcNS_11char_traitsIcEEED1Ev, symObjAddr: 0x22F0, symBinAddr: 0x100005660, symSize: 0x28 }
  - { offsetInCU: 0x16ABA, offset: 0x16ABA, size: 0x8, addend: 0x0, symName: __ZNSt3__114basic_ofstreamIcNS_11char_traitsIcEEED2Ev, symObjAddr: 0x2318, symBinAddr: 0x100005688, symSize: 0x64 }
  - { offsetInCU: 0x16AF2, offset: 0x16AF2, size: 0x8, addend: 0x0, symName: __ZTv0_n24_NSt3__114basic_ofstreamIcNS_11char_traitsIcEEED1Ev, symObjAddr: 0x237C, symBinAddr: 0x1000056EC, symSize: 0x28 }
  - { offsetInCU: 0x16B09, offset: 0x16B09, size: 0x8, addend: 0x0, symName: __ZNSt3__112basic_stringIcNS_11char_traitsIcEENS_9allocatorIcEEEC2B8ue170006Ev, symObjAddr: 0x23A4, symBinAddr: 0x100005714, symSize: 0x48 }
  - { offsetInCU: 0x16B37, offset: 0x16B37, size: 0x8, addend: 0x0, symName: __ZNSt3__117__compressed_pairINS_12basic_stringIcNS_11char_traitsIcEENS_9allocatorIcEEE5__repES5_EC1B8ue170006INS_18__default_init_tagESA_EEOT_OT0_, symObjAddr: 0x23EC, symBinAddr: 0x10000575C, symSize: 0x3C }
  - { offsetInCU: 0x16B8E, offset: 0x16B8E, size: 0x8, addend: 0x0, symName: __ZNSt3__112basic_stringIcNS_11char_traitsIcEENS_9allocatorIcEEE14__default_initB8ue170006Ev, symObjAddr: 0x2428, symBinAddr: 0x100005798, symSize: 0x40 }
  - { offsetInCU: 0x16BB3, offset: 0x16BB3, size: 0x8, addend: 0x0, symName: __ZNSt3__117__compressed_pairINS_12basic_stringIcNS_11char_traitsIcEENS_9allocatorIcEEE5__repES5_EC2B8ue170006INS_18__default_init_tagESA_EEOT_OT0_, symObjAddr: 0x2468, symBinAddr: 0x1000057D8, symSize: 0x3C }
  - { offsetInCU: 0x16C0A, offset: 0x16C0A, size: 0x8, addend: 0x0, symName: __ZNSt3__122__compressed_pair_elemINS_12basic_stringIcNS_11char_traitsIcEENS_9allocatorIcEEE5__repELi0ELb0EEC2B8ue170006ENS_18__default_init_tagE, symObjAddr: 0x24A4, symBinAddr: 0x100005814, symSize: 0x14 }
  - { offsetInCU: 0x16C3E, offset: 0x16C3E, size: 0x8, addend: 0x0, symName: __ZNSt3__122__compressed_pair_elemINS_9allocatorIcEELi1ELb1EEC2B8ue170006ENS_18__default_init_tagE, symObjAddr: 0x24B8, symBinAddr: 0x100005828, symSize: 0x2C }
  - { offsetInCU: 0x16C72, offset: 0x16C72, size: 0x8, addend: 0x0, symName: __ZNSt3__19allocatorIcEC2B8ue170006Ev, symObjAddr: 0x24E4, symBinAddr: 0x100005854, symSize: 0x2C }
  - { offsetInCU: 0x16C9B, offset: 0x16C9B, size: 0x8, addend: 0x0, symName: __ZNSt3__116__non_trivial_ifILb1ENS_9allocatorIcEEEC2B8ue170006Ev, symObjAddr: 0x2510, symBinAddr: 0x100005880, symSize: 0x14 }
  - { offsetInCU: 0x16CC4, offset: 0x16CC4, size: 0x8, addend: 0x0, symName: __ZNSt3__117__compressed_pairINS_12basic_stringIcNS_11char_traitsIcEENS_9allocatorIcEEE5__repES5_E5firstB8ue170006Ev, symObjAddr: 0x2524, symBinAddr: 0x100005894, symSize: 0x24 }
  - { offsetInCU: 0x16CE9, offset: 0x16CE9, size: 0x8, addend: 0x0, symName: __ZNSt3__122__compressed_pair_elemINS_12basic_stringIcNS_11char_traitsIcEENS_9allocatorIcEEE5__repELi0ELb0EE5__getB8ue170006Ev, symObjAddr: 0x2548, symBinAddr: 0x1000058B8, symSize: 0x14 }
  - { offsetInCU: 0x16D0E, offset: 0x16D0E, size: 0x8, addend: 0x0, symName: __ZNSt3__16vectorI5CacheNS_9allocatorIS1_EEEC2Em, symObjAddr: 0x255C, symBinAddr: 0x1000058CC, symSize: 0xD4 }
  - { offsetInCU: 0x16D62, offset: 0x16D62, size: 0x8, addend: 0x0, symName: __ZNSt3__117__compressed_pairIP5CacheNS_9allocatorIS1_EEEC1B8ue170006IDnNS_18__default_init_tagEEEOT_OT0_, symObjAddr: 0x2630, symBinAddr: 0x1000059A0, symSize: 0x3C }
  - { offsetInCU: 0x16DB9, offset: 0x16DB9, size: 0x8, addend: 0x0, symName: __ZNSt3__16vectorI5CacheNS_9allocatorIS1_EEE16__destroy_vectorC1B8ue170006ERS4_, symObjAddr: 0x26AC, symBinAddr: 0x100005A1C, symSize: 0x34 }
  - { offsetInCU: 0x16DF1, offset: 0x16DF1, size: 0x8, addend: 0x0, symName: __ZNSt3__16vectorI5CacheNS_9allocatorIS1_EEE11__vallocateB8ue170006Em, symObjAddr: 0x26E0, symBinAddr: 0x100005A50, symSize: 0xB4 }
  - { offsetInCU: 0x16E34, offset: 0x16E34, size: 0x8, addend: 0x0, symName: __ZNSt3__16vectorI5CacheNS_9allocatorIS1_EEE18__construct_at_endEm, symObjAddr: 0x2794, symBinAddr: 0x100005B04, symSize: 0xC8 }
  - { offsetInCU: 0x16EA5, offset: 0x16EA5, size: 0x8, addend: 0x0, symName: __ZNSt3__128__exception_guard_exceptionsINS_6vectorI5CacheNS_9allocatorIS2_EEE16__destroy_vectorEE10__completeB8ue170006Ev, symObjAddr: 0x285C, symBinAddr: 0x100005BCC, symSize: 0x1C }
  - { offsetInCU: 0x16ECA, offset: 0x16ECA, size: 0x8, addend: 0x0, symName: __ZNSt3__128__exception_guard_exceptionsINS_6vectorI5CacheNS_9allocatorIS2_EEE16__destroy_vectorEED1B8ue170006Ev, symObjAddr: 0x2878, symBinAddr: 0x100005BE8, symSize: 0x2C }
  - { offsetInCU: 0x16EF3, offset: 0x16EF3, size: 0x8, addend: 0x0, symName: __ZNSt3__117__compressed_pairIP5CacheNS_9allocatorIS1_EEEC2B8ue170006IDnNS_18__default_init_tagEEEOT_OT0_, symObjAddr: 0x28A4, symBinAddr: 0x100005C14, symSize: 0x40 }
  - { offsetInCU: 0x16F4A, offset: 0x16F4A, size: 0x8, addend: 0x0, symName: __ZNSt3__122__compressed_pair_elemIP5CacheLi0ELb0EEC2B8ue170006IDnvEEOT_, symObjAddr: 0x28E4, symBinAddr: 0x100005C54, symSize: 0x1C }
  - { offsetInCU: 0x16F8B, offset: 0x16F8B, size: 0x8, addend: 0x0, symName: __ZNSt3__122__compressed_pair_elemINS_9allocatorI5CacheEELi1ELb1EEC2B8ue170006ENS_18__default_init_tagE, symObjAddr: 0x2900, symBinAddr: 0x100005C70, symSize: 0x2C }
  - { offsetInCU: 0x16FBF, offset: 0x16FBF, size: 0x8, addend: 0x0, symName: __ZNSt3__19allocatorI5CacheEC2B8ue170006Ev, symObjAddr: 0x292C, symBinAddr: 0x100005C9C, symSize: 0x2C }
  - { offsetInCU: 0x16FE8, offset: 0x16FE8, size: 0x8, addend: 0x0, symName: __ZNSt3__116__non_trivial_ifILb1ENS_9allocatorI5CacheEEEC2B8ue170006Ev, symObjAddr: 0x2958, symBinAddr: 0x100005CC8, symSize: 0x14 }
  - { offsetInCU: 0x17011, offset: 0x17011, size: 0x8, addend: 0x0, symName: __ZNSt3__128__exception_guard_exceptionsINS_6vectorI5CacheNS_9allocatorIS2_EEE16__destroy_vectorEEC1B8ue170006ES6_, symObjAddr: 0x296C, symBinAddr: 0x100005CDC, symSize: 0x34 }
  - { offsetInCU: 0x17048, offset: 0x17048, size: 0x8, addend: 0x0, symName: __ZNSt3__128__exception_guard_exceptionsINS_6vectorI5CacheNS_9allocatorIS2_EEE16__destroy_vectorEEC2B8ue170006ES6_, symObjAddr: 0x29A0, symBinAddr: 0x100005D10, symSize: 0x24 }
  - { offsetInCU: 0x1707F, offset: 0x1707F, size: 0x8, addend: 0x0, symName: __ZNSt3__16vectorI5CacheNS_9allocatorIS1_EEE16__destroy_vectorC2B8ue170006ERS4_, symObjAddr: 0x29C4, symBinAddr: 0x100005D34, symSize: 0x20 }
  - { offsetInCU: 0x170B7, offset: 0x170B7, size: 0x8, addend: 0x0, symName: __ZNKSt3__16vectorI5CacheNS_9allocatorIS1_EEE8max_sizeEv, symObjAddr: 0x29E4, symBinAddr: 0x100005D54, symSize: 0x60 }
  - { offsetInCU: 0x170DD, offset: 0x170DD, size: 0x8, addend: 0x0, symName: __ZNKSt3__16vectorI5CacheNS_9allocatorIS1_EEE20__throw_length_errorB8ue170006Ev, symObjAddr: 0x2A44, symBinAddr: 0x100005DB4, symSize: 0x1C }
  - { offsetInCU: 0x17102, offset: 0x17102, size: 0x8, addend: 0x0, symName: __ZNSt3__16vectorI5CacheNS_9allocatorIS1_EEE7__allocB8ue170006Ev, symObjAddr: 0x2AA0, symBinAddr: 0x100005E10, symSize: 0x28 }
  - { offsetInCU: 0x17127, offset: 0x17127, size: 0x8, addend: 0x0, symName: __ZNSt3__16vectorI5CacheNS_9allocatorIS1_EEE9__end_capB8ue170006Ev, symObjAddr: 0x2AC8, symBinAddr: 0x100005E38, symSize: 0x28 }
  - { offsetInCU: 0x1714C, offset: 0x1714C, size: 0x8, addend: 0x0, symName: __ZNKSt3__16vectorI5CacheNS_9allocatorIS1_EEE14__annotate_newB8ue170006Em, symObjAddr: 0x2AF0, symBinAddr: 0x100005E60, symSize: 0xC8 }
  - { offsetInCU: 0x1718A, offset: 0x1718A, size: 0x8, addend: 0x0, symName: __ZNSt3__116allocator_traitsINS_9allocatorI5CacheEEE8max_sizeB8ue170006IS3_vEEmRKS3_, symObjAddr: 0x2BE4, symBinAddr: 0x100005F54, symSize: 0x24 }
  - { offsetInCU: 0x171B8, offset: 0x171B8, size: 0x8, addend: 0x0, symName: __ZNKSt3__16vectorI5CacheNS_9allocatorIS1_EEE7__allocB8ue170006Ev, symObjAddr: 0x2C08, symBinAddr: 0x100005F78, symSize: 0x28 }
  - { offsetInCU: 0x171DD, offset: 0x171DD, size: 0x8, addend: 0x0, symName: __ZNSt3__114numeric_limitsIlE3maxB8ue170006Ev, symObjAddr: 0x2C30, symBinAddr: 0x100005FA0, symSize: 0x14 }
  - { offsetInCU: 0x171FB, offset: 0x171FB, size: 0x8, addend: 0x0, symName: __ZNKSt3__16__lessIvvEclB8ue170006ImmEEbRKT_RKT0_, symObjAddr: 0x2C98, symBinAddr: 0x100006008, symSize: 0x34 }
  - { offsetInCU: 0x1724E, offset: 0x1724E, size: 0x8, addend: 0x0, symName: __ZNKSt3__19allocatorI5CacheE8max_sizeB8ue170006Ev, symObjAddr: 0x2CCC, symBinAddr: 0x10000603C, symSize: 0x18 }
  - { offsetInCU: 0x17273, offset: 0x17273, size: 0x8, addend: 0x0, symName: __ZNKSt3__117__compressed_pairIP5CacheNS_9allocatorIS1_EEE6secondB8ue170006Ev, symObjAddr: 0x2CE4, symBinAddr: 0x100006054, symSize: 0x24 }
  - { offsetInCU: 0x17298, offset: 0x17298, size: 0x8, addend: 0x0, symName: __ZNKSt3__122__compressed_pair_elemINS_9allocatorI5CacheEELi1ELb1EE5__getB8ue170006Ev, symObjAddr: 0x2D08, symBinAddr: 0x100006078, symSize: 0x14 }
  - { offsetInCU: 0x172BD, offset: 0x172BD, size: 0x8, addend: 0x0, symName: __ZNSt3__123__libcpp_numeric_limitsIlLb1EE3maxB8ue170006Ev, symObjAddr: 0x2D1C, symBinAddr: 0x10000608C, symSize: 0x8 }
  - { offsetInCU: 0x172D1, offset: 0x172D1, size: 0x8, addend: 0x0, symName: __ZNSt12length_errorC1B8ue170006EPKc, symObjAddr: 0x2D88, symBinAddr: 0x1000060F8, symSize: 0x34 }
  - { offsetInCU: 0x17308, offset: 0x17308, size: 0x8, addend: 0x0, symName: __ZNSt12length_errorC2B8ue170006EPKc, symObjAddr: 0x2DBC, symBinAddr: 0x10000612C, symSize: 0x4C }
  - { offsetInCU: 0x1733F, offset: 0x1733F, size: 0x8, addend: 0x0, symName: __ZNSt3__19allocatorI5CacheE8allocateB8ue170006Em, symObjAddr: 0x2E08, symBinAddr: 0x100006178, symSize: 0x5C }
  - { offsetInCU: 0x17372, offset: 0x17372, size: 0x8, addend: 0x0, symName: __ZNSt3__117__compressed_pairIP5CacheNS_9allocatorIS1_EEE6secondB8ue170006Ev, symObjAddr: 0x2EE4, symBinAddr: 0x100006254, symSize: 0x24 }
  - { offsetInCU: 0x17397, offset: 0x17397, size: 0x8, addend: 0x0, symName: __ZNSt3__122__compressed_pair_elemINS_9allocatorI5CacheEELi1ELb1EE5__getB8ue170006Ev, symObjAddr: 0x2F08, symBinAddr: 0x100006278, symSize: 0x14 }
  - { offsetInCU: 0x173BC, offset: 0x173BC, size: 0x8, addend: 0x0, symName: __ZNSt3__117__compressed_pairIP5CacheNS_9allocatorIS1_EEE5firstB8ue170006Ev, symObjAddr: 0x2F1C, symBinAddr: 0x10000628C, symSize: 0x24 }
  - { offsetInCU: 0x173E1, offset: 0x173E1, size: 0x8, addend: 0x0, symName: __ZNSt3__122__compressed_pair_elemIP5CacheLi0ELb0EE5__getB8ue170006Ev, symObjAddr: 0x2F40, symBinAddr: 0x1000062B0, symSize: 0x14 }
  - { offsetInCU: 0x17406, offset: 0x17406, size: 0x8, addend: 0x0, symName: __ZNKSt3__16vectorI5CacheNS_9allocatorIS1_EEE31__annotate_contiguous_containerB8ue170006EPKvS6_S6_S6_, symObjAddr: 0x2F54, symBinAddr: 0x1000062C4, symSize: 0x20 }
  - { offsetInCU: 0x17457, offset: 0x17457, size: 0x8, addend: 0x0, symName: __ZNKSt3__16vectorI5CacheNS_9allocatorIS1_EEE4dataB8ue170006Ev, symObjAddr: 0x2F74, symBinAddr: 0x1000062E4, symSize: 0x28 }
  - { offsetInCU: 0x1747C, offset: 0x1747C, size: 0x8, addend: 0x0, symName: __ZNKSt3__16vectorI5CacheNS_9allocatorIS1_EEE8capacityB8ue170006Ev, symObjAddr: 0x2F9C, symBinAddr: 0x10000630C, symSize: 0x40 }
  - { offsetInCU: 0x174A1, offset: 0x174A1, size: 0x8, addend: 0x0, symName: __ZNKSt3__16vectorI5CacheNS_9allocatorIS1_EEE9__end_capB8ue170006Ev, symObjAddr: 0x2FF0, symBinAddr: 0x100006360, symSize: 0x28 }
  - { offsetInCU: 0x174C6, offset: 0x174C6, size: 0x8, addend: 0x0, symName: __ZNKSt3__117__compressed_pairIP5CacheNS_9allocatorIS1_EEE5firstB8ue170006Ev, symObjAddr: 0x3018, symBinAddr: 0x100006388, symSize: 0x24 }
  - { offsetInCU: 0x174EB, offset: 0x174EB, size: 0x8, addend: 0x0, symName: __ZNKSt3__122__compressed_pair_elemIP5CacheLi0ELb0EE5__getB8ue170006Ev, symObjAddr: 0x303C, symBinAddr: 0x1000063AC, symSize: 0x14 }
  - { offsetInCU: 0x17529, offset: 0x17529, size: 0x8, addend: 0x0, symName: __ZNSt3__16vectorI5CacheNS_9allocatorIS1_EEE21_ConstructTransactionC1B8ue170006ERS4_m, symObjAddr: 0x3050, symBinAddr: 0x1000063C0, symSize: 0x3C }
  - { offsetInCU: 0x17570, offset: 0x17570, size: 0x8, addend: 0x0, symName: __ZNSt3__116allocator_traitsINS_9allocatorI5CacheEEE9constructB8ue170006IS2_JEvEEvRS3_PT_DpOT0_, symObjAddr: 0x308C, symBinAddr: 0x1000063FC, symSize: 0x2C }
  - { offsetInCU: 0x175B2, offset: 0x175B2, size: 0x8, addend: 0x0, symName: __ZNSt3__16vectorI5CacheNS_9allocatorIS1_EEE21_ConstructTransactionD1B8ue170006Ev, symObjAddr: 0x30B8, symBinAddr: 0x100006428, symSize: 0x2C }
  - { offsetInCU: 0x175DB, offset: 0x175DB, size: 0x8, addend: 0x0, symName: __ZNSt3__16vectorI5CacheNS_9allocatorIS1_EEE21_ConstructTransactionC2B8ue170006ERS4_m, symObjAddr: 0x30E4, symBinAddr: 0x100006454, symSize: 0x4C }
  - { offsetInCU: 0x17622, offset: 0x17622, size: 0x8, addend: 0x0, symName: __ZNSt3__19allocatorI5CacheE9constructB8ue170006IS1_JEEEvPT_DpOT0_, symObjAddr: 0x3130, symBinAddr: 0x1000064A0, symSize: 0x3C }
  - { offsetInCU: 0x17668, offset: 0x17668, size: 0x8, addend: 0x0, symName: __ZN5CacheC1Ev, symObjAddr: 0x316C, symBinAddr: 0x1000064DC, symSize: 0x2C }
  - { offsetInCU: 0x17693, offset: 0x17693, size: 0x8, addend: 0x0, symName: __ZN5CacheC2Ev, symObjAddr: 0x3198, symBinAddr: 0x100006508, symSize: 0x2C }
  - { offsetInCU: 0x176BE, offset: 0x176BE, size: 0x8, addend: 0x0, symName: __ZNSt3__16vectorINS0_I9CacheLineNS_9allocatorIS1_EEEENS2_IS4_EEEC1B8ue170006Ev, symObjAddr: 0x31C4, symBinAddr: 0x100006534, symSize: 0x2C }
  - { offsetInCU: 0x176E7, offset: 0x176E7, size: 0x8, addend: 0x0, symName: __ZNSt3__16vectorINS0_I9CacheLineNS_9allocatorIS1_EEEENS2_IS4_EEEC2B8ue170006Ev, symObjAddr: 0x31F0, symBinAddr: 0x100006560, symSize: 0x4C }
  - { offsetInCU: 0x17710, offset: 0x17710, size: 0x8, addend: 0x0, symName: __ZNSt3__117__compressed_pairIPNS_6vectorI9CacheLineNS_9allocatorIS2_EEEENS3_IS5_EEEC1B8ue170006IDnNS_18__default_init_tagEEEOT_OT0_, symObjAddr: 0x323C, symBinAddr: 0x1000065AC, symSize: 0x3C }
  - { offsetInCU: 0x17767, offset: 0x17767, size: 0x8, addend: 0x0, symName: __ZNSt3__117__compressed_pairIPNS_6vectorI9CacheLineNS_9allocatorIS2_EEEENS3_IS5_EEEC2B8ue170006IDnNS_18__default_init_tagEEEOT_OT0_, symObjAddr: 0x3278, symBinAddr: 0x1000065E8, symSize: 0x40 }
  - { offsetInCU: 0x177BE, offset: 0x177BE, size: 0x8, addend: 0x0, symName: __ZNSt3__122__compressed_pair_elemIPNS_6vectorI9CacheLineNS_9allocatorIS2_EEEELi0ELb0EEC2B8ue170006IDnvEEOT_, symObjAddr: 0x32B8, symBinAddr: 0x100006628, symSize: 0x1C }
  - { offsetInCU: 0x177FF, offset: 0x177FF, size: 0x8, addend: 0x0, symName: __ZNSt3__122__compressed_pair_elemINS_9allocatorINS_6vectorI9CacheLineNS1_IS3_EEEEEELi1ELb1EEC2B8ue170006ENS_18__default_init_tagE, symObjAddr: 0x32D4, symBinAddr: 0x100006644, symSize: 0x2C }
  - { offsetInCU: 0x17833, offset: 0x17833, size: 0x8, addend: 0x0, symName: __ZNSt3__19allocatorINS_6vectorI9CacheLineNS0_IS2_EEEEEC2B8ue170006Ev, symObjAddr: 0x3300, symBinAddr: 0x100006670, symSize: 0x2C }
  - { offsetInCU: 0x1785C, offset: 0x1785C, size: 0x8, addend: 0x0, symName: __ZNSt3__116__non_trivial_ifILb1ENS_9allocatorINS_6vectorI9CacheLineNS1_IS3_EEEEEEEC2B8ue170006Ev, symObjAddr: 0x332C, symBinAddr: 0x10000669C, symSize: 0x14 }
  - { offsetInCU: 0x17885, offset: 0x17885, size: 0x8, addend: 0x0, symName: __ZNSt3__16vectorI5CacheNS_9allocatorIS1_EEE21_ConstructTransactionD2B8ue170006Ev, symObjAddr: 0x3340, symBinAddr: 0x1000066B0, symSize: 0x20 }
  - { offsetInCU: 0x178AE, offset: 0x178AE, size: 0x8, addend: 0x0, symName: __ZNSt3__128__exception_guard_exceptionsINS_6vectorI5CacheNS_9allocatorIS2_EEE16__destroy_vectorEED2B8ue170006Ev, symObjAddr: 0x3360, symBinAddr: 0x1000066D0, symSize: 0x50 }
  - { offsetInCU: 0x178D7, offset: 0x178D7, size: 0x8, addend: 0x0, symName: __ZNSt3__16vectorI5CacheNS_9allocatorIS1_EEE16__destroy_vectorclB8ue170006Ev, symObjAddr: 0x33B0, symBinAddr: 0x100006720, symSize: 0x90 }
  - { offsetInCU: 0x178FC, offset: 0x178FC, size: 0x8, addend: 0x0, symName: __ZNSt3__16vectorI5CacheNS_9allocatorIS1_EEE7__clearB8ue170006Ev, symObjAddr: 0x3440, symBinAddr: 0x1000067B0, symSize: 0x28 }
  - { offsetInCU: 0x17921, offset: 0x17921, size: 0x8, addend: 0x0, symName: __ZNKSt3__16vectorI5CacheNS_9allocatorIS1_EEE17__annotate_deleteB8ue170006Ev, symObjAddr: 0x3468, symBinAddr: 0x1000067D8, symSize: 0xD4 }
  - { offsetInCU: 0x17946, offset: 0x17946, size: 0x8, addend: 0x0, symName: __ZNSt3__116allocator_traitsINS_9allocatorI5CacheEEE10deallocateB8ue170006ERS3_PS2_m, symObjAddr: 0x353C, symBinAddr: 0x1000068AC, symSize: 0x34 }
  - { offsetInCU: 0x17988, offset: 0x17988, size: 0x8, addend: 0x0, symName: __ZNSt3__16vectorI5CacheNS_9allocatorIS1_EEE22__base_destruct_at_endB8ue170006EPS1_, symObjAddr: 0x3570, symBinAddr: 0x1000068E0, symSize: 0x8C }
  - { offsetInCU: 0x179CB, offset: 0x179CB, size: 0x8, addend: 0x0, symName: __ZNSt3__116allocator_traitsINS_9allocatorI5CacheEEE7destroyB8ue170006IS2_vEEvRS3_PT_, symObjAddr: 0x35FC, symBinAddr: 0x10000696C, symSize: 0x2C }
  - { offsetInCU: 0x17A08, offset: 0x17A08, size: 0x8, addend: 0x0, symName: __ZNSt3__19allocatorI5CacheE7destroyB8ue170006EPS1_, symObjAddr: 0x3628, symBinAddr: 0x100006998, symSize: 0x28 }
  - { offsetInCU: 0x17A3B, offset: 0x17A3B, size: 0x8, addend: 0x0, symName: __ZN5CacheD1Ev, symObjAddr: 0x3650, symBinAddr: 0x1000069C0, symSize: 0x2C }
  - { offsetInCU: 0x17A66, offset: 0x17A66, size: 0x8, addend: 0x0, symName: __ZN5CacheD2Ev, symObjAddr: 0x367C, symBinAddr: 0x1000069EC, symSize: 0x2C }
  - { offsetInCU: 0x17A91, offset: 0x17A91, size: 0x8, addend: 0x0, symName: __ZNSt3__16vectorINS0_I9CacheLineNS_9allocatorIS1_EEEENS2_IS4_EEED1B8ue170006Ev, symObjAddr: 0x36A8, symBinAddr: 0x100006A18, symSize: 0x2C }
  - { offsetInCU: 0x17ABA, offset: 0x17ABA, size: 0x8, addend: 0x0, symName: __ZNSt3__16vectorINS0_I9CacheLineNS_9allocatorIS1_EEEENS2_IS4_EEED2B8ue170006Ev, symObjAddr: 0x36D4, symBinAddr: 0x100006A44, symSize: 0x44 }
  - { offsetInCU: 0x17AE3, offset: 0x17AE3, size: 0x8, addend: 0x0, symName: __ZNSt3__16vectorINS0_I9CacheLineNS_9allocatorIS1_EEEENS2_IS4_EEE16__destroy_vectorC1B8ue170006ERS6_, symObjAddr: 0x3718, symBinAddr: 0x100006A88, symSize: 0x34 }
  - { offsetInCU: 0x17B1B, offset: 0x17B1B, size: 0x8, addend: 0x0, symName: __ZNSt3__16vectorINS0_I9CacheLineNS_9allocatorIS1_EEEENS2_IS4_EEE16__destroy_vectorclB8ue170006Ev, symObjAddr: 0x374C, symBinAddr: 0x100006ABC, symSize: 0x90 }
  - { offsetInCU: 0x17B40, offset: 0x17B40, size: 0x8, addend: 0x0, symName: __ZNSt3__16vectorINS0_I9CacheLineNS_9allocatorIS1_EEEENS2_IS4_EEE16__destroy_vectorC2B8ue170006ERS6_, symObjAddr: 0x37DC, symBinAddr: 0x100006B4C, symSize: 0x20 }
  - { offsetInCU: 0x17B78, offset: 0x17B78, size: 0x8, addend: 0x0, symName: __ZNSt3__16vectorINS0_I9CacheLineNS_9allocatorIS1_EEEENS2_IS4_EEE7__clearB8ue170006Ev, symObjAddr: 0x37FC, symBinAddr: 0x100006B6C, symSize: 0x28 }
  - { offsetInCU: 0x17B9D, offset: 0x17B9D, size: 0x8, addend: 0x0, symName: __ZNKSt3__16vectorINS0_I9CacheLineNS_9allocatorIS1_EEEENS2_IS4_EEE17__annotate_deleteB8ue170006Ev, symObjAddr: 0x3824, symBinAddr: 0x100006B94, symSize: 0xD4 }
  - { offsetInCU: 0x17BC2, offset: 0x17BC2, size: 0x8, addend: 0x0, symName: __ZNSt3__116allocator_traitsINS_9allocatorINS_6vectorI9CacheLineNS1_IS3_EEEEEEE10deallocateB8ue170006ERS6_PS5_m, symObjAddr: 0x38F8, symBinAddr: 0x100006C68, symSize: 0x34 }
  - { offsetInCU: 0x17C04, offset: 0x17C04, size: 0x8, addend: 0x0, symName: __ZNSt3__16vectorINS0_I9CacheLineNS_9allocatorIS1_EEEENS2_IS4_EEE7__allocB8ue170006Ev, symObjAddr: 0x392C, symBinAddr: 0x100006C9C, symSize: 0x28 }
  - { offsetInCU: 0x17C29, offset: 0x17C29, size: 0x8, addend: 0x0, symName: __ZNKSt3__16vectorINS0_I9CacheLineNS_9allocatorIS1_EEEENS2_IS4_EEE8capacityB8ue170006Ev, symObjAddr: 0x3954, symBinAddr: 0x100006CC4, symSize: 0x40 }
  - { offsetInCU: 0x17C4E, offset: 0x17C4E, size: 0x8, addend: 0x0, symName: __ZNSt3__16vectorINS0_I9CacheLineNS_9allocatorIS1_EEEENS2_IS4_EEE22__base_destruct_at_endB8ue170006EPS4_, symObjAddr: 0x3994, symBinAddr: 0x100006D04, symSize: 0x8C }
  - { offsetInCU: 0x17C91, offset: 0x17C91, size: 0x8, addend: 0x0, symName: __ZNSt3__116allocator_traitsINS_9allocatorINS_6vectorI9CacheLineNS1_IS3_EEEEEEE7destroyB8ue170006IS5_vEEvRS6_PT_, symObjAddr: 0x3A20, symBinAddr: 0x100006D90, symSize: 0x2C }
  - { offsetInCU: 0x17CCE, offset: 0x17CCE, size: 0x8, addend: 0x0, symName: __ZNSt3__19allocatorINS_6vectorI9CacheLineNS0_IS2_EEEEE7destroyB8ue170006EPS4_, symObjAddr: 0x3A60, symBinAddr: 0x100006DD0, symSize: 0x28 }
  - { offsetInCU: 0x17D01, offset: 0x17D01, size: 0x8, addend: 0x0, symName: __ZNKSt3__16vectorINS0_I9CacheLineNS_9allocatorIS1_EEEENS2_IS4_EEE31__annotate_contiguous_containerB8ue170006EPKvS8_S8_S8_, symObjAddr: 0x3A88, symBinAddr: 0x100006DF8, symSize: 0x20 }
  - { offsetInCU: 0x17D52, offset: 0x17D52, size: 0x8, addend: 0x0, symName: __ZNKSt3__16vectorINS0_I9CacheLineNS_9allocatorIS1_EEEENS2_IS4_EEE4dataB8ue170006Ev, symObjAddr: 0x3AA8, symBinAddr: 0x100006E18, symSize: 0x28 }
  - { offsetInCU: 0x17D77, offset: 0x17D77, size: 0x8, addend: 0x0, symName: __ZNKSt3__16vectorINS0_I9CacheLineNS_9allocatorIS1_EEEENS2_IS4_EEE4sizeB8ue170006Ev, symObjAddr: 0x3AD0, symBinAddr: 0x100006E40, symSize: 0x28 }
  - { offsetInCU: 0x17D9C, offset: 0x17D9C, size: 0x8, addend: 0x0, symName: __ZNSt3__19allocatorINS_6vectorI9CacheLineNS0_IS2_EEEEE10deallocateB8ue170006EPS4_m, symObjAddr: 0x3AF8, symBinAddr: 0x100006E68, symSize: 0x44 }
  - { offsetInCU: 0x17DDD, offset: 0x17DDD, size: 0x8, addend: 0x0, symName: __ZNSt3__117__compressed_pairIPNS_6vectorI9CacheLineNS_9allocatorIS2_EEEENS3_IS5_EEE6secondB8ue170006Ev, symObjAddr: 0x3B3C, symBinAddr: 0x100006EAC, symSize: 0x24 }
  - { offsetInCU: 0x17E02, offset: 0x17E02, size: 0x8, addend: 0x0, symName: __ZNSt3__122__compressed_pair_elemINS_9allocatorINS_6vectorI9CacheLineNS1_IS3_EEEEEELi1ELb1EE5__getB8ue170006Ev, symObjAddr: 0x3B60, symBinAddr: 0x100006ED0, symSize: 0x14 }
  - { offsetInCU: 0x17E27, offset: 0x17E27, size: 0x8, addend: 0x0, symName: __ZNKSt3__16vectorINS0_I9CacheLineNS_9allocatorIS1_EEEENS2_IS4_EEE9__end_capB8ue170006Ev, symObjAddr: 0x3B74, symBinAddr: 0x100006EE4, symSize: 0x28 }
  - { offsetInCU: 0x17E4C, offset: 0x17E4C, size: 0x8, addend: 0x0, symName: __ZNKSt3__117__compressed_pairIPNS_6vectorI9CacheLineNS_9allocatorIS2_EEEENS3_IS5_EEE5firstB8ue170006Ev, symObjAddr: 0x3B9C, symBinAddr: 0x100006F0C, symSize: 0x24 }
  - { offsetInCU: 0x17E71, offset: 0x17E71, size: 0x8, addend: 0x0, symName: __ZNKSt3__122__compressed_pair_elemIPNS_6vectorI9CacheLineNS_9allocatorIS2_EEEELi0ELb0EE5__getB8ue170006Ev, symObjAddr: 0x3BC0, symBinAddr: 0x100006F30, symSize: 0x14 }
  - { offsetInCU: 0x17E96, offset: 0x17E96, size: 0x8, addend: 0x0, symName: __ZNKSt3__16vectorI5CacheNS_9allocatorIS1_EEE4sizeB8ue170006Ev, symObjAddr: 0x3BD4, symBinAddr: 0x100006F44, symSize: 0x28 }
  - { offsetInCU: 0x17EBB, offset: 0x17EBB, size: 0x8, addend: 0x0, symName: __ZNSt3__19allocatorI5CacheE10deallocateB8ue170006EPS1_m, symObjAddr: 0x3BFC, symBinAddr: 0x100006F6C, symSize: 0x44 }
  - { offsetInCU: 0x17EFC, offset: 0x17EFC, size: 0x8, addend: 0x0, symName: __ZNSt3__16vectorI5CacheNS_9allocatorIS1_EEED2B8ue170006Ev, symObjAddr: 0x3C40, symBinAddr: 0x100006FB0, symSize: 0x40 }
  - { offsetInCU: 0x17F25, offset: 0x17F25, size: 0x8, addend: 0x0, symName: __ZNSt3__16vectorImNS_9allocatorImEEEC2EmRKm, symObjAddr: 0x3C80, symBinAddr: 0x100006FF0, symSize: 0xDC }
  - { offsetInCU: 0x17F83, offset: 0x17F83, size: 0x8, addend: 0x0, symName: __ZNSt3__117__compressed_pairIPmNS_9allocatorImEEEC1B8ue170006IDnNS_18__default_init_tagEEEOT_OT0_, symObjAddr: 0x3D5C, symBinAddr: 0x1000070CC, symSize: 0x3C }
  - { offsetInCU: 0x17FDA, offset: 0x17FDA, size: 0x8, addend: 0x0, symName: __ZNSt3__16vectorImNS_9allocatorImEEE16__destroy_vectorC1B8ue170006ERS3_, symObjAddr: 0x3DD8, symBinAddr: 0x100007148, symSize: 0x34 }
  - { offsetInCU: 0x18012, offset: 0x18012, size: 0x8, addend: 0x0, symName: __ZNSt3__16vectorImNS_9allocatorImEEE11__vallocateB8ue170006Em, symObjAddr: 0x3E0C, symBinAddr: 0x10000717C, symSize: 0xAC }
  - { offsetInCU: 0x18055, offset: 0x18055, size: 0x8, addend: 0x0, symName: __ZNSt3__16vectorImNS_9allocatorImEEE18__construct_at_endEmRKm, symObjAddr: 0x3EB8, symBinAddr: 0x100007228, symSize: 0xD0 }
  - { offsetInCU: 0x180D5, offset: 0x180D5, size: 0x8, addend: 0x0, symName: __ZNSt3__128__exception_guard_exceptionsINS_6vectorImNS_9allocatorImEEE16__destroy_vectorEE10__completeB8ue170006Ev, symObjAddr: 0x3F88, symBinAddr: 0x1000072F8, symSize: 0x1C }
  - { offsetInCU: 0x180FA, offset: 0x180FA, size: 0x8, addend: 0x0, symName: __ZNSt3__128__exception_guard_exceptionsINS_6vectorImNS_9allocatorImEEE16__destroy_vectorEED1B8ue170006Ev, symObjAddr: 0x3FA4, symBinAddr: 0x100007314, symSize: 0x2C }
  - { offsetInCU: 0x18123, offset: 0x18123, size: 0x8, addend: 0x0, symName: __ZNSt3__117__compressed_pairIPmNS_9allocatorImEEEC2B8ue170006IDnNS_18__default_init_tagEEEOT_OT0_, symObjAddr: 0x3FD0, symBinAddr: 0x100007340, symSize: 0x40 }
  - { offsetInCU: 0x1817A, offset: 0x1817A, size: 0x8, addend: 0x0, symName: __ZNSt3__122__compressed_pair_elemIPmLi0ELb0EEC2B8ue170006IDnvEEOT_, symObjAddr: 0x4010, symBinAddr: 0x100007380, symSize: 0x1C }
  - { offsetInCU: 0x181BB, offset: 0x181BB, size: 0x8, addend: 0x0, symName: __ZNSt3__122__compressed_pair_elemINS_9allocatorImEELi1ELb1EEC2B8ue170006ENS_18__default_init_tagE, symObjAddr: 0x402C, symBinAddr: 0x10000739C, symSize: 0x2C }
  - { offsetInCU: 0x181EF, offset: 0x181EF, size: 0x8, addend: 0x0, symName: __ZNSt3__19allocatorImEC2B8ue170006Ev, symObjAddr: 0x4058, symBinAddr: 0x1000073C8, symSize: 0x2C }
  - { offsetInCU: 0x18218, offset: 0x18218, size: 0x8, addend: 0x0, symName: __ZNSt3__116__non_trivial_ifILb1ENS_9allocatorImEEEC2B8ue170006Ev, symObjAddr: 0x4084, symBinAddr: 0x1000073F4, symSize: 0x14 }
  - { offsetInCU: 0x18241, offset: 0x18241, size: 0x8, addend: 0x0, symName: __ZNSt3__128__exception_guard_exceptionsINS_6vectorImNS_9allocatorImEEE16__destroy_vectorEEC1B8ue170006ES5_, symObjAddr: 0x4098, symBinAddr: 0x100007408, symSize: 0x34 }
  - { offsetInCU: 0x18278, offset: 0x18278, size: 0x8, addend: 0x0, symName: __ZNSt3__128__exception_guard_exceptionsINS_6vectorImNS_9allocatorImEEE16__destroy_vectorEEC2B8ue170006ES5_, symObjAddr: 0x40CC, symBinAddr: 0x10000743C, symSize: 0x24 }
  - { offsetInCU: 0x182AF, offset: 0x182AF, size: 0x8, addend: 0x0, symName: __ZNSt3__16vectorImNS_9allocatorImEEE16__destroy_vectorC2B8ue170006ERS3_, symObjAddr: 0x40F0, symBinAddr: 0x100007460, symSize: 0x20 }
  - { offsetInCU: 0x182E7, offset: 0x182E7, size: 0x8, addend: 0x0, symName: __ZNKSt3__16vectorImNS_9allocatorImEEE8max_sizeEv, symObjAddr: 0x4110, symBinAddr: 0x100007480, symSize: 0x60 }
  - { offsetInCU: 0x1830D, offset: 0x1830D, size: 0x8, addend: 0x0, symName: __ZNKSt3__16vectorImNS_9allocatorImEEE20__throw_length_errorB8ue170006Ev, symObjAddr: 0x4170, symBinAddr: 0x1000074E0, symSize: 0x1C }
  - { offsetInCU: 0x18332, offset: 0x18332, size: 0x8, addend: 0x0, symName: __ZNSt3__16vectorImNS_9allocatorImEEE7__allocB8ue170006Ev, symObjAddr: 0x41CC, symBinAddr: 0x10000753C, symSize: 0x28 }
  - { offsetInCU: 0x18357, offset: 0x18357, size: 0x8, addend: 0x0, symName: __ZNSt3__16vectorImNS_9allocatorImEEE9__end_capB8ue170006Ev, symObjAddr: 0x41F4, symBinAddr: 0x100007564, symSize: 0x28 }
  - { offsetInCU: 0x1837C, offset: 0x1837C, size: 0x8, addend: 0x0, symName: __ZNKSt3__16vectorImNS_9allocatorImEEE14__annotate_newB8ue170006Em, symObjAddr: 0x421C, symBinAddr: 0x10000758C, symSize: 0xAC }
  - { offsetInCU: 0x183BA, offset: 0x183BA, size: 0x8, addend: 0x0, symName: __ZNSt3__116allocator_traitsINS_9allocatorImEEE8max_sizeB8ue170006IS2_vEEmRKS2_, symObjAddr: 0x42C8, symBinAddr: 0x100007638, symSize: 0x24 }
  - { offsetInCU: 0x183E8, offset: 0x183E8, size: 0x8, addend: 0x0, symName: __ZNKSt3__16vectorImNS_9allocatorImEEE7__allocB8ue170006Ev, symObjAddr: 0x42EC, symBinAddr: 0x10000765C, symSize: 0x28 }
  - { offsetInCU: 0x1840D, offset: 0x1840D, size: 0x8, addend: 0x0, symName: __ZNKSt3__19allocatorImE8max_sizeB8ue170006Ev, symObjAddr: 0x4314, symBinAddr: 0x100007684, symSize: 0x14 }
  - { offsetInCU: 0x18432, offset: 0x18432, size: 0x8, addend: 0x0, symName: __ZNKSt3__117__compressed_pairIPmNS_9allocatorImEEE6secondB8ue170006Ev, symObjAddr: 0x4328, symBinAddr: 0x100007698, symSize: 0x24 }
  - { offsetInCU: 0x18457, offset: 0x18457, size: 0x8, addend: 0x0, symName: __ZNKSt3__122__compressed_pair_elemINS_9allocatorImEELi1ELb1EE5__getB8ue170006Ev, symObjAddr: 0x434C, symBinAddr: 0x1000076BC, symSize: 0x14 }
  - { offsetInCU: 0x1847C, offset: 0x1847C, size: 0x8, addend: 0x0, symName: __ZNSt3__19allocatorImE8allocateB8ue170006Em, symObjAddr: 0x4360, symBinAddr: 0x1000076D0, symSize: 0x58 }
  - { offsetInCU: 0x184AF, offset: 0x184AF, size: 0x8, addend: 0x0, symName: __ZNSt3__117__compressed_pairIPmNS_9allocatorImEEE6secondB8ue170006Ev, symObjAddr: 0x43B8, symBinAddr: 0x100007728, symSize: 0x24 }
  - { offsetInCU: 0x184D4, offset: 0x184D4, size: 0x8, addend: 0x0, symName: __ZNSt3__122__compressed_pair_elemINS_9allocatorImEELi1ELb1EE5__getB8ue170006Ev, symObjAddr: 0x43DC, symBinAddr: 0x10000774C, symSize: 0x14 }
  - { offsetInCU: 0x184F9, offset: 0x184F9, size: 0x8, addend: 0x0, symName: __ZNSt3__117__compressed_pairIPmNS_9allocatorImEEE5firstB8ue170006Ev, symObjAddr: 0x43F0, symBinAddr: 0x100007760, symSize: 0x24 }
  - { offsetInCU: 0x1851E, offset: 0x1851E, size: 0x8, addend: 0x0, symName: __ZNSt3__122__compressed_pair_elemIPmLi0ELb0EE5__getB8ue170006Ev, symObjAddr: 0x4414, symBinAddr: 0x100007784, symSize: 0x14 }
  - { offsetInCU: 0x18543, offset: 0x18543, size: 0x8, addend: 0x0, symName: __ZNKSt3__16vectorImNS_9allocatorImEEE31__annotate_contiguous_containerB8ue170006EPKvS5_S5_S5_, symObjAddr: 0x4428, symBinAddr: 0x100007798, symSize: 0x20 }
  - { offsetInCU: 0x18594, offset: 0x18594, size: 0x8, addend: 0x0, symName: __ZNKSt3__16vectorImNS_9allocatorImEEE4dataB8ue170006Ev, symObjAddr: 0x4448, symBinAddr: 0x1000077B8, symSize: 0x28 }
  - { offsetInCU: 0x185B9, offset: 0x185B9, size: 0x8, addend: 0x0, symName: __ZNKSt3__16vectorImNS_9allocatorImEEE8capacityB8ue170006Ev, symObjAddr: 0x4470, symBinAddr: 0x1000077E0, symSize: 0x40 }
  - { offsetInCU: 0x185DE, offset: 0x185DE, size: 0x8, addend: 0x0, symName: __ZNKSt3__16vectorImNS_9allocatorImEEE9__end_capB8ue170006Ev, symObjAddr: 0x44C4, symBinAddr: 0x100007834, symSize: 0x28 }
  - { offsetInCU: 0x18603, offset: 0x18603, size: 0x8, addend: 0x0, symName: __ZNKSt3__117__compressed_pairIPmNS_9allocatorImEEE5firstB8ue170006Ev, symObjAddr: 0x44EC, symBinAddr: 0x10000785C, symSize: 0x24 }
  - { offsetInCU: 0x18628, offset: 0x18628, size: 0x8, addend: 0x0, symName: __ZNKSt3__122__compressed_pair_elemIPmLi0ELb0EE5__getB8ue170006Ev, symObjAddr: 0x4510, symBinAddr: 0x100007880, symSize: 0x14 }
  - { offsetInCU: 0x18666, offset: 0x18666, size: 0x8, addend: 0x0, symName: __ZNSt3__16vectorImNS_9allocatorImEEE21_ConstructTransactionC1B8ue170006ERS3_m, symObjAddr: 0x4524, symBinAddr: 0x100007894, symSize: 0x3C }
  - { offsetInCU: 0x186AD, offset: 0x186AD, size: 0x8, addend: 0x0, symName: __ZNSt3__116allocator_traitsINS_9allocatorImEEE9constructB8ue170006ImJRKmEvEEvRS2_PT_DpOT0_, symObjAddr: 0x4560, symBinAddr: 0x1000078D0, symSize: 0x34 }
  - { offsetInCU: 0x18704, offset: 0x18704, size: 0x8, addend: 0x0, symName: __ZNSt3__16vectorImNS_9allocatorImEEE21_ConstructTransactionD1B8ue170006Ev, symObjAddr: 0x4594, symBinAddr: 0x100007904, symSize: 0x2C }
  - { offsetInCU: 0x1872D, offset: 0x1872D, size: 0x8, addend: 0x0, symName: __ZNSt3__16vectorImNS_9allocatorImEEE21_ConstructTransactionC2B8ue170006ERS3_m, symObjAddr: 0x45C0, symBinAddr: 0x100007930, symSize: 0x44 }
  - { offsetInCU: 0x18774, offset: 0x18774, size: 0x8, addend: 0x0, symName: __ZNSt3__19allocatorImE9constructB8ue170006ImJRKmEEEvPT_DpOT0_, symObjAddr: 0x4604, symBinAddr: 0x100007974, symSize: 0x28 }
  - { offsetInCU: 0x187C9, offset: 0x187C9, size: 0x8, addend: 0x0, symName: __ZNSt3__16vectorImNS_9allocatorImEEE21_ConstructTransactionD2B8ue170006Ev, symObjAddr: 0x462C, symBinAddr: 0x10000799C, symSize: 0x20 }
  - { offsetInCU: 0x187F2, offset: 0x187F2, size: 0x8, addend: 0x0, symName: __ZNSt3__128__exception_guard_exceptionsINS_6vectorImNS_9allocatorImEEE16__destroy_vectorEED2B8ue170006Ev, symObjAddr: 0x464C, symBinAddr: 0x1000079BC, symSize: 0x50 }
  - { offsetInCU: 0x1881B, offset: 0x1881B, size: 0x8, addend: 0x0, symName: __ZNSt3__16vectorImNS_9allocatorImEEE16__destroy_vectorclB8ue170006Ev, symObjAddr: 0x469C, symBinAddr: 0x100007A0C, symSize: 0x90 }
  - { offsetInCU: 0x18840, offset: 0x18840, size: 0x8, addend: 0x0, symName: __ZNSt3__16vectorImNS_9allocatorImEEE7__clearB8ue170006Ev, symObjAddr: 0x472C, symBinAddr: 0x100007A9C, symSize: 0x28 }
  - { offsetInCU: 0x18865, offset: 0x18865, size: 0x8, addend: 0x0, symName: __ZNKSt3__16vectorImNS_9allocatorImEEE17__annotate_deleteB8ue170006Ev, symObjAddr: 0x4754, symBinAddr: 0x100007AC4, symSize: 0xB8 }
  - { offsetInCU: 0x1888A, offset: 0x1888A, size: 0x8, addend: 0x0, symName: __ZNSt3__116allocator_traitsINS_9allocatorImEEE10deallocateB8ue170006ERS2_Pmm, symObjAddr: 0x480C, symBinAddr: 0x100007B7C, symSize: 0x34 }
  - { offsetInCU: 0x188CC, offset: 0x188CC, size: 0x8, addend: 0x0, symName: __ZNSt3__16vectorImNS_9allocatorImEEE22__base_destruct_at_endB8ue170006EPm, symObjAddr: 0x4840, symBinAddr: 0x100007BB0, symSize: 0x8C }
  - { offsetInCU: 0x1890F, offset: 0x1890F, size: 0x8, addend: 0x0, symName: __ZNSt3__116allocator_traitsINS_9allocatorImEEE7destroyB8ue170006ImvEEvRS2_PT_, symObjAddr: 0x48CC, symBinAddr: 0x100007C3C, symSize: 0x2C }
  - { offsetInCU: 0x1894C, offset: 0x1894C, size: 0x8, addend: 0x0, symName: __ZNSt3__19allocatorImE7destroyB8ue170006EPm, symObjAddr: 0x48F8, symBinAddr: 0x100007C68, symSize: 0x14 }
  - { offsetInCU: 0x1897F, offset: 0x1897F, size: 0x8, addend: 0x0, symName: __ZNKSt3__16vectorImNS_9allocatorImEEE4sizeB8ue170006Ev, symObjAddr: 0x490C, symBinAddr: 0x100007C7C, symSize: 0x28 }
  - { offsetInCU: 0x189A4, offset: 0x189A4, size: 0x8, addend: 0x0, symName: __ZNSt3__19allocatorImE10deallocateB8ue170006EPmm, symObjAddr: 0x4934, symBinAddr: 0x100007CA4, symSize: 0x40 }
  - { offsetInCU: 0x189E5, offset: 0x189E5, size: 0x8, addend: 0x0, symName: __ZNSt3__16vectorImNS_9allocatorImEEED2B8ue170006Ev, symObjAddr: 0x4974, symBinAddr: 0x100007CE4, symSize: 0x40 }
  - { offsetInCU: 0x18A0E, offset: 0x18A0E, size: 0x8, addend: 0x0, symName: __ZNSt3__111char_traitsIcE6lengthB8ue170006EPKc, symObjAddr: 0x4BA0, symBinAddr: 0x100007F10, symSize: 0x34 }
  - { offsetInCU: 0x18A4F, offset: 0x18A4F, size: 0x8, addend: 0x0, symName: __ZNKSt3__113basic_ostreamIcNS_11char_traitsIcEEE6sentrycvbB8ue170006Ev, symObjAddr: 0x4BD4, symBinAddr: 0x100007F44, symSize: 0x1C }
  - { offsetInCU: 0x18A74, offset: 0x18A74, size: 0x8, addend: 0x0, symName: __ZNSt3__119ostreambuf_iteratorIcNS_11char_traitsIcEEEC1B8ue170006ERNS_13basic_ostreamIcS2_EE, symObjAddr: 0x4E30, symBinAddr: 0x1000081A0, symSize: 0x34 }
  - { offsetInCU: 0x18AAB, offset: 0x18AAB, size: 0x8, addend: 0x0, symName: __ZNKSt3__18ios_base5flagsB8ue170006Ev, symObjAddr: 0x4E64, symBinAddr: 0x1000081D4, symSize: 0x18 }
  - { offsetInCU: 0x18AD2, offset: 0x18AD2, size: 0x8, addend: 0x0, symName: __ZNKSt3__19basic_iosIcNS_11char_traitsIcEEE4fillB8ue170006Ev, symObjAddr: 0x4E7C, symBinAddr: 0x1000081EC, symSize: 0x64 }
  - { offsetInCU: 0x18AF8, offset: 0x18AF8, size: 0x8, addend: 0x0, symName: __ZNKSt3__119ostreambuf_iteratorIcNS_11char_traitsIcEEE6failedB8ue170006Ev, symObjAddr: 0x4EE0, symBinAddr: 0x100008250, symSize: 0x24 }
  - { offsetInCU: 0x18B1D, offset: 0x18B1D, size: 0x8, addend: 0x0, symName: __ZNSt3__19basic_iosIcNS_11char_traitsIcEEE8setstateB8ue170006Ej, symObjAddr: 0x4F04, symBinAddr: 0x100008274, symSize: 0x2C }
  - { offsetInCU: 0x18B51, offset: 0x18B51, size: 0x8, addend: 0x0, symName: __ZNKSt3__18ios_base5widthB8ue170006Ev, symObjAddr: 0x4F30, symBinAddr: 0x1000082A0, symSize: 0x18 }
  - { offsetInCU: 0x18B78, offset: 0x18B78, size: 0x8, addend: 0x0, symName: __ZNSt3__115basic_streambufIcNS_11char_traitsIcEEE5sputnB8ue170006EPKcl, symObjAddr: 0x4F48, symBinAddr: 0x1000082B8, symSize: 0x3C }
  - { offsetInCU: 0x18BB9, offset: 0x18BB9, size: 0x8, addend: 0x0, symName: __ZNSt3__112basic_stringIcNS_11char_traitsIcEENS_9allocatorIcEEEC1B8ue170006Emc, symObjAddr: 0x4F84, symBinAddr: 0x1000082F4, symSize: 0x3C }
  - { offsetInCU: 0x18C00, offset: 0x18C00, size: 0x8, addend: 0x0, symName: __ZNKSt3__112basic_stringIcNS_11char_traitsIcEENS_9allocatorIcEEE4dataB8ue170006Ev, symObjAddr: 0x4FC0, symBinAddr: 0x100008330, symSize: 0x28 }
  - { offsetInCU: 0x18C25, offset: 0x18C25, size: 0x8, addend: 0x0, symName: __ZNSt3__18ios_base5widthB8ue170006El, symObjAddr: 0x4FE8, symBinAddr: 0x100008358, symSize: 0x2C }
  - { offsetInCU: 0x18C6A, offset: 0x18C6A, size: 0x8, addend: 0x0, symName: __ZNSt3__112basic_stringIcNS_11char_traitsIcEENS_9allocatorIcEEEC2B8ue170006Emc, symObjAddr: 0x5014, symBinAddr: 0x100008384, symSize: 0x4C }
  - { offsetInCU: 0x18CB1, offset: 0x18CB1, size: 0x8, addend: 0x0, symName: __ZNKSt3__112basic_stringIcNS_11char_traitsIcEENS_9allocatorIcEEE13__get_pointerB8ue170006Ev, symObjAddr: 0x5074, symBinAddr: 0x1000083E4, symSize: 0x54 }
  - { offsetInCU: 0x18CD6, offset: 0x18CD6, size: 0x8, addend: 0x0, symName: __ZNKSt3__112basic_stringIcNS_11char_traitsIcEENS_9allocatorIcEEE9__is_longB8ue170006Ev, symObjAddr: 0x50C8, symBinAddr: 0x100008438, symSize: 0x38 }
  - { offsetInCU: 0x18CFB, offset: 0x18CFB, size: 0x8, addend: 0x0, symName: __ZNKSt3__112basic_stringIcNS_11char_traitsIcEENS_9allocatorIcEEE18__get_long_pointerB8ue170006Ev, symObjAddr: 0x5100, symBinAddr: 0x100008470, symSize: 0x28 }
  - { offsetInCU: 0x18D20, offset: 0x18D20, size: 0x8, addend: 0x0, symName: __ZNKSt3__112basic_stringIcNS_11char_traitsIcEENS_9allocatorIcEEE19__get_short_pointerB8ue170006Ev, symObjAddr: 0x5128, symBinAddr: 0x100008498, symSize: 0x28 }
  - { offsetInCU: 0x18D45, offset: 0x18D45, size: 0x8, addend: 0x0, symName: __ZNKSt3__117__compressed_pairINS_12basic_stringIcNS_11char_traitsIcEENS_9allocatorIcEEE5__repES5_E5firstB8ue170006Ev, symObjAddr: 0x5150, symBinAddr: 0x1000084C0, symSize: 0x24 }
  - { offsetInCU: 0x18D6A, offset: 0x18D6A, size: 0x8, addend: 0x0, symName: __ZNKSt3__122__compressed_pair_elemINS_12basic_stringIcNS_11char_traitsIcEENS_9allocatorIcEEE5__repELi0ELb0EE5__getB8ue170006Ev, symObjAddr: 0x5174, symBinAddr: 0x1000084E4, symSize: 0x14 }
  - { offsetInCU: 0x18D8F, offset: 0x18D8F, size: 0x8, addend: 0x0, symName: __ZNSt3__114pointer_traitsIPKcE10pointer_toB8ue170006ERS1_, symObjAddr: 0x5188, symBinAddr: 0x1000084F8, symSize: 0x14 }
  - { offsetInCU: 0x18DB2, offset: 0x18DB2, size: 0x8, addend: 0x0, symName: __ZNSt3__119ostreambuf_iteratorIcNS_11char_traitsIcEEEC2B8ue170006ERNS_13basic_ostreamIcS2_EE, symObjAddr: 0x519C, symBinAddr: 0x10000850C, symSize: 0x54 }
  - { offsetInCU: 0x18DE9, offset: 0x18DE9, size: 0x8, addend: 0x0, symName: __ZNKSt3__19basic_iosIcNS_11char_traitsIcEEE5rdbufB8ue170006Ev, symObjAddr: 0x51F0, symBinAddr: 0x100008560, symSize: 0x24 }
  - { offsetInCU: 0x18E0F, offset: 0x18E0F, size: 0x8, addend: 0x0, symName: __ZNKSt3__18ios_base5rdbufB8ue170006Ev, symObjAddr: 0x5214, symBinAddr: 0x100008584, symSize: 0x18 }
  - { offsetInCU: 0x18E34, offset: 0x18E34, size: 0x8, addend: 0x0, symName: __ZNSt3__111char_traitsIcE11eq_int_typeB8ue170006Eii, symObjAddr: 0x522C, symBinAddr: 0x10000859C, symSize: 0x28 }
  - { offsetInCU: 0x18E67, offset: 0x18E67, size: 0x8, addend: 0x0, symName: __ZNSt3__111char_traitsIcE3eofB8ue170006Ev, symObjAddr: 0x5254, symBinAddr: 0x1000085C4, symSize: 0x8 }
  - { offsetInCU: 0x18E7B, offset: 0x18E7B, size: 0x8, addend: 0x0, symName: __ZNKSt3__19basic_iosIcNS_11char_traitsIcEEE5widenB8ue170006Ec, symObjAddr: 0x525C, symBinAddr: 0x1000085CC, symSize: 0x84 }
  - { offsetInCU: 0x18EE2, offset: 0x18EE2, size: 0x8, addend: 0x0, symName: __ZNKSt3__15ctypeIcE5widenB8ue170006Ec, symObjAddr: 0x530C, symBinAddr: 0x10000867C, symSize: 0x38 }
  - { offsetInCU: 0x18F16, offset: 0x18F16, size: 0x8, addend: 0x0, symName: __ZNSt3__18ios_base8setstateB8ue170006Ej, symObjAddr: 0x5344, symBinAddr: 0x1000086B4, symSize: 0x34 }
  - { offsetInCU: 0x18F4B, offset: 0x18F4B, size: 0x8, addend: 0x0, symName: __ZNSt3__16vectorIjNS_9allocatorIjEEEC2B8ue170006Ev, symObjAddr: 0x539C, symBinAddr: 0x10000870C, symSize: 0x4C }
  - { offsetInCU: 0x18F74, offset: 0x18F74, size: 0x8, addend: 0x0, symName: __ZNSt3__117__compressed_pairIPjNS_9allocatorIjEEEC1B8ue170006IDnNS_18__default_init_tagEEEOT_OT0_, symObjAddr: 0x53E8, symBinAddr: 0x100008758, symSize: 0x3C }
  - { offsetInCU: 0x18FCB, offset: 0x18FCB, size: 0x8, addend: 0x0, symName: __ZNSt3__117__compressed_pairIPjNS_9allocatorIjEEEC2B8ue170006IDnNS_18__default_init_tagEEEOT_OT0_, symObjAddr: 0x5424, symBinAddr: 0x100008794, symSize: 0x40 }
  - { offsetInCU: 0x19022, offset: 0x19022, size: 0x8, addend: 0x0, symName: __ZNSt3__122__compressed_pair_elemIPjLi0ELb0EEC2B8ue170006IDnvEEOT_, symObjAddr: 0x5464, symBinAddr: 0x1000087D4, symSize: 0x1C }
  - { offsetInCU: 0x19063, offset: 0x19063, size: 0x8, addend: 0x0, symName: __ZNSt3__122__compressed_pair_elemINS_9allocatorIjEELi1ELb1EEC2B8ue170006ENS_18__default_init_tagE, symObjAddr: 0x5480, symBinAddr: 0x1000087F0, symSize: 0x2C }
  - { offsetInCU: 0x19097, offset: 0x19097, size: 0x8, addend: 0x0, symName: __ZNSt3__19allocatorIjEC2B8ue170006Ev, symObjAddr: 0x54AC, symBinAddr: 0x10000881C, symSize: 0x2C }
  - { offsetInCU: 0x190C0, offset: 0x190C0, size: 0x8, addend: 0x0, symName: __ZNSt3__116__non_trivial_ifILb1ENS_9allocatorIjEEEC2B8ue170006Ev, symObjAddr: 0x54D8, symBinAddr: 0x100008848, symSize: 0x14 }
  - { offsetInCU: 0x190E9, offset: 0x190E9, size: 0x8, addend: 0x0, symName: __ZNSt3__16vectorI9CacheLineNS_9allocatorIS1_EEEC2EmRKS1_, symObjAddr: 0x54EC, symBinAddr: 0x10000885C, symSize: 0xDC }
  - { offsetInCU: 0x19147, offset: 0x19147, size: 0x8, addend: 0x0, symName: __ZNSt3__117__compressed_pairIP9CacheLineNS_9allocatorIS1_EEEC1B8ue170006IDnNS_18__default_init_tagEEEOT_OT0_, symObjAddr: 0x55C8, symBinAddr: 0x100008938, symSize: 0x3C }
  - { offsetInCU: 0x1919E, offset: 0x1919E, size: 0x8, addend: 0x0, symName: __ZNSt3__16vectorI9CacheLineNS_9allocatorIS1_EEE16__destroy_vectorC1B8ue170006ERS4_, symObjAddr: 0x5644, symBinAddr: 0x1000089B4, symSize: 0x34 }
  - { offsetInCU: 0x191D6, offset: 0x191D6, size: 0x8, addend: 0x0, symName: __ZNSt3__16vectorI9CacheLineNS_9allocatorIS1_EEE11__vallocateB8ue170006Em, symObjAddr: 0x5678, symBinAddr: 0x1000089E8, symSize: 0xB4 }
  - { offsetInCU: 0x19219, offset: 0x19219, size: 0x8, addend: 0x0, symName: __ZNSt3__16vectorI9CacheLineNS_9allocatorIS1_EEE18__construct_at_endEmRKS1_, symObjAddr: 0x572C, symBinAddr: 0x100008A9C, symSize: 0xD0 }
  - { offsetInCU: 0x19299, offset: 0x19299, size: 0x8, addend: 0x0, symName: __ZNSt3__128__exception_guard_exceptionsINS_6vectorI9CacheLineNS_9allocatorIS2_EEE16__destroy_vectorEE10__completeB8ue170006Ev, symObjAddr: 0x57FC, symBinAddr: 0x100008B6C, symSize: 0x1C }
  - { offsetInCU: 0x192BE, offset: 0x192BE, size: 0x8, addend: 0x0, symName: __ZNSt3__128__exception_guard_exceptionsINS_6vectorI9CacheLineNS_9allocatorIS2_EEE16__destroy_vectorEED1B8ue170006Ev, symObjAddr: 0x5818, symBinAddr: 0x100008B88, symSize: 0x2C }
  - { offsetInCU: 0x192E7, offset: 0x192E7, size: 0x8, addend: 0x0, symName: __ZNSt3__117__compressed_pairIP9CacheLineNS_9allocatorIS1_EEEC2B8ue170006IDnNS_18__default_init_tagEEEOT_OT0_, symObjAddr: 0x5844, symBinAddr: 0x100008BB4, symSize: 0x40 }
  - { offsetInCU: 0x1933E, offset: 0x1933E, size: 0x8, addend: 0x0, symName: __ZNSt3__122__compressed_pair_elemIP9CacheLineLi0ELb0EEC2B8ue170006IDnvEEOT_, symObjAddr: 0x5884, symBinAddr: 0x100008BF4, symSize: 0x1C }
  - { offsetInCU: 0x1937F, offset: 0x1937F, size: 0x8, addend: 0x0, symName: __ZNSt3__122__compressed_pair_elemINS_9allocatorI9CacheLineEELi1ELb1EEC2B8ue170006ENS_18__default_init_tagE, symObjAddr: 0x58A0, symBinAddr: 0x100008C10, symSize: 0x2C }
  - { offsetInCU: 0x193B3, offset: 0x193B3, size: 0x8, addend: 0x0, symName: __ZNSt3__19allocatorI9CacheLineEC2B8ue170006Ev, symObjAddr: 0x58CC, symBinAddr: 0x100008C3C, symSize: 0x2C }
  - { offsetInCU: 0x193DC, offset: 0x193DC, size: 0x8, addend: 0x0, symName: __ZNSt3__116__non_trivial_ifILb1ENS_9allocatorI9CacheLineEEEC2B8ue170006Ev, symObjAddr: 0x58F8, symBinAddr: 0x100008C68, symSize: 0x14 }
  - { offsetInCU: 0x19405, offset: 0x19405, size: 0x8, addend: 0x0, symName: __ZNSt3__128__exception_guard_exceptionsINS_6vectorI9CacheLineNS_9allocatorIS2_EEE16__destroy_vectorEEC1B8ue170006ES6_, symObjAddr: 0x590C, symBinAddr: 0x100008C7C, symSize: 0x34 }
  - { offsetInCU: 0x1943C, offset: 0x1943C, size: 0x8, addend: 0x0, symName: __ZNSt3__128__exception_guard_exceptionsINS_6vectorI9CacheLineNS_9allocatorIS2_EEE16__destroy_vectorEEC2B8ue170006ES6_, symObjAddr: 0x5940, symBinAddr: 0x100008CB0, symSize: 0x24 }
  - { offsetInCU: 0x19473, offset: 0x19473, size: 0x8, addend: 0x0, symName: __ZNSt3__16vectorI9CacheLineNS_9allocatorIS1_EEE16__destroy_vectorC2B8ue170006ERS4_, symObjAddr: 0x5964, symBinAddr: 0x100008CD4, symSize: 0x20 }
  - { offsetInCU: 0x194AB, offset: 0x194AB, size: 0x8, addend: 0x0, symName: __ZNKSt3__16vectorI9CacheLineNS_9allocatorIS1_EEE8max_sizeEv, symObjAddr: 0x5984, symBinAddr: 0x100008CF4, symSize: 0x60 }
  - { offsetInCU: 0x194D1, offset: 0x194D1, size: 0x8, addend: 0x0, symName: __ZNKSt3__16vectorI9CacheLineNS_9allocatorIS1_EEE20__throw_length_errorB8ue170006Ev, symObjAddr: 0x59E4, symBinAddr: 0x100008D54, symSize: 0x1C }
  - { offsetInCU: 0x194F6, offset: 0x194F6, size: 0x8, addend: 0x0, symName: __ZNSt3__16vectorI9CacheLineNS_9allocatorIS1_EEE7__allocB8ue170006Ev, symObjAddr: 0x5A40, symBinAddr: 0x100008DB0, symSize: 0x28 }
  - { offsetInCU: 0x1951B, offset: 0x1951B, size: 0x8, addend: 0x0, symName: __ZNSt3__16vectorI9CacheLineNS_9allocatorIS1_EEE9__end_capB8ue170006Ev, symObjAddr: 0x5A68, symBinAddr: 0x100008DD8, symSize: 0x28 }
  - { offsetInCU: 0x19540, offset: 0x19540, size: 0x8, addend: 0x0, symName: __ZNKSt3__16vectorI9CacheLineNS_9allocatorIS1_EEE14__annotate_newB8ue170006Em, symObjAddr: 0x5A90, symBinAddr: 0x100008E00, symSize: 0xC8 }
  - { offsetInCU: 0x1957E, offset: 0x1957E, size: 0x8, addend: 0x0, symName: __ZNSt3__116allocator_traitsINS_9allocatorI9CacheLineEEE8max_sizeB8ue170006IS3_vEEmRKS3_, symObjAddr: 0x5B58, symBinAddr: 0x100008EC8, symSize: 0x24 }
  - { offsetInCU: 0x195AC, offset: 0x195AC, size: 0x8, addend: 0x0, symName: __ZNKSt3__16vectorI9CacheLineNS_9allocatorIS1_EEE7__allocB8ue170006Ev, symObjAddr: 0x5B7C, symBinAddr: 0x100008EEC, symSize: 0x28 }
  - { offsetInCU: 0x195D1, offset: 0x195D1, size: 0x8, addend: 0x0, symName: __ZNKSt3__19allocatorI9CacheLineE8max_sizeB8ue170006Ev, symObjAddr: 0x5BA4, symBinAddr: 0x100008F14, symSize: 0x18 }
  - { offsetInCU: 0x195F6, offset: 0x195F6, size: 0x8, addend: 0x0, symName: __ZNKSt3__117__compressed_pairIP9CacheLineNS_9allocatorIS1_EEE6secondB8ue170006Ev, symObjAddr: 0x5BBC, symBinAddr: 0x100008F2C, symSize: 0x24 }
  - { offsetInCU: 0x1961B, offset: 0x1961B, size: 0x8, addend: 0x0, symName: __ZNKSt3__122__compressed_pair_elemINS_9allocatorI9CacheLineEELi1ELb1EE5__getB8ue170006Ev, symObjAddr: 0x5BE0, symBinAddr: 0x100008F50, symSize: 0x14 }
  - { offsetInCU: 0x19640, offset: 0x19640, size: 0x8, addend: 0x0, symName: __ZNSt3__19allocatorI9CacheLineE8allocateB8ue170006Em, symObjAddr: 0x5BF4, symBinAddr: 0x100008F64, symSize: 0x5C }
  - { offsetInCU: 0x19673, offset: 0x19673, size: 0x8, addend: 0x0, symName: __ZNSt3__117__compressed_pairIP9CacheLineNS_9allocatorIS1_EEE6secondB8ue170006Ev, symObjAddr: 0x5C50, symBinAddr: 0x100008FC0, symSize: 0x24 }
  - { offsetInCU: 0x19698, offset: 0x19698, size: 0x8, addend: 0x0, symName: __ZNSt3__122__compressed_pair_elemINS_9allocatorI9CacheLineEELi1ELb1EE5__getB8ue170006Ev, symObjAddr: 0x5C74, symBinAddr: 0x100008FE4, symSize: 0x14 }
  - { offsetInCU: 0x196BD, offset: 0x196BD, size: 0x8, addend: 0x0, symName: __ZNSt3__117__compressed_pairIP9CacheLineNS_9allocatorIS1_EEE5firstB8ue170006Ev, symObjAddr: 0x5C88, symBinAddr: 0x100008FF8, symSize: 0x24 }
  - { offsetInCU: 0x196E2, offset: 0x196E2, size: 0x8, addend: 0x0, symName: __ZNSt3__122__compressed_pair_elemIP9CacheLineLi0ELb0EE5__getB8ue170006Ev, symObjAddr: 0x5CAC, symBinAddr: 0x10000901C, symSize: 0x14 }
  - { offsetInCU: 0x19707, offset: 0x19707, size: 0x8, addend: 0x0, symName: __ZNKSt3__16vectorI9CacheLineNS_9allocatorIS1_EEE31__annotate_contiguous_containerB8ue170006EPKvS6_S6_S6_, symObjAddr: 0x5CC0, symBinAddr: 0x100009030, symSize: 0x20 }
  - { offsetInCU: 0x19758, offset: 0x19758, size: 0x8, addend: 0x0, symName: __ZNKSt3__16vectorI9CacheLineNS_9allocatorIS1_EEE4dataB8ue170006Ev, symObjAddr: 0x5CE0, symBinAddr: 0x100009050, symSize: 0x28 }
  - { offsetInCU: 0x1977D, offset: 0x1977D, size: 0x8, addend: 0x0, symName: __ZNKSt3__16vectorI9CacheLineNS_9allocatorIS1_EEE8capacityB8ue170006Ev, symObjAddr: 0x5D08, symBinAddr: 0x100009078, symSize: 0x40 }
  - { offsetInCU: 0x197A2, offset: 0x197A2, size: 0x8, addend: 0x0, symName: __ZNKSt3__16vectorI9CacheLineNS_9allocatorIS1_EEE9__end_capB8ue170006Ev, symObjAddr: 0x5D5C, symBinAddr: 0x1000090CC, symSize: 0x28 }
  - { offsetInCU: 0x197C7, offset: 0x197C7, size: 0x8, addend: 0x0, symName: __ZNKSt3__117__compressed_pairIP9CacheLineNS_9allocatorIS1_EEE5firstB8ue170006Ev, symObjAddr: 0x5D84, symBinAddr: 0x1000090F4, symSize: 0x24 }
  - { offsetInCU: 0x197EC, offset: 0x197EC, size: 0x8, addend: 0x0, symName: __ZNKSt3__122__compressed_pair_elemIP9CacheLineLi0ELb0EE5__getB8ue170006Ev, symObjAddr: 0x5DA8, symBinAddr: 0x100009118, symSize: 0x14 }
  - { offsetInCU: 0x1982A, offset: 0x1982A, size: 0x8, addend: 0x0, symName: __ZNSt3__16vectorI9CacheLineNS_9allocatorIS1_EEE21_ConstructTransactionC1B8ue170006ERS4_m, symObjAddr: 0x5DBC, symBinAddr: 0x10000912C, symSize: 0x3C }
  - { offsetInCU: 0x19871, offset: 0x19871, size: 0x8, addend: 0x0, symName: __ZNSt3__116allocator_traitsINS_9allocatorI9CacheLineEEE9constructB8ue170006IS2_JRKS2_EvEEvRS3_PT_DpOT0_, symObjAddr: 0x5DF8, symBinAddr: 0x100009168, symSize: 0x34 }
  - { offsetInCU: 0x198C8, offset: 0x198C8, size: 0x8, addend: 0x0, symName: __ZNSt3__16vectorI9CacheLineNS_9allocatorIS1_EEE21_ConstructTransactionD1B8ue170006Ev, symObjAddr: 0x5E2C, symBinAddr: 0x10000919C, symSize: 0x2C }
  - { offsetInCU: 0x198F1, offset: 0x198F1, size: 0x8, addend: 0x0, symName: __ZNSt3__16vectorI9CacheLineNS_9allocatorIS1_EEE21_ConstructTransactionC2B8ue170006ERS4_m, symObjAddr: 0x5E58, symBinAddr: 0x1000091C8, symSize: 0x4C }
  - { offsetInCU: 0x19938, offset: 0x19938, size: 0x8, addend: 0x0, symName: __ZNSt3__19allocatorI9CacheLineE9constructB8ue170006IS1_JRKS1_EEEvPT_DpOT0_, symObjAddr: 0x5EA4, symBinAddr: 0x100009214, symSize: 0x30 }
  - { offsetInCU: 0x1998D, offset: 0x1998D, size: 0x8, addend: 0x0, symName: __ZN9CacheLineC1ERKS_, symObjAddr: 0x5ED4, symBinAddr: 0x100009244, symSize: 0x34 }
  - { offsetInCU: 0x199C1, offset: 0x199C1, size: 0x8, addend: 0x0, symName: __ZN9CacheLineC2ERKS_, symObjAddr: 0x5F08, symBinAddr: 0x100009278, symSize: 0x48 }
  - { offsetInCU: 0x199F5, offset: 0x199F5, size: 0x8, addend: 0x0, symName: __ZNSt3__16vectorIjNS_9allocatorIjEEEC1ERKS3_, symObjAddr: 0x5F50, symBinAddr: 0x1000092C0, symSize: 0x34 }
  - { offsetInCU: 0x19A2F, offset: 0x19A2F, size: 0x8, addend: 0x0, symName: __ZNSt3__16vectorIjNS_9allocatorIjEEEC2ERKS3_, symObjAddr: 0x5F84, symBinAddr: 0x1000092F4, symSize: 0x94 }
  - { offsetInCU: 0x19A73, offset: 0x19A73, size: 0x8, addend: 0x0, symName: __ZNSt3__116allocator_traitsINS_9allocatorIjEEE37select_on_container_copy_constructionB8ue170006IS2_vvEES2_RKS2_, symObjAddr: 0x6018, symBinAddr: 0x100009388, symSize: 0x10 }
  - { offsetInCU: 0x19AA2, offset: 0x19AA2, size: 0x8, addend: 0x0, symName: __ZNKSt3__16vectorIjNS_9allocatorIjEEE7__allocB8ue170006Ev, symObjAddr: 0x6028, symBinAddr: 0x100009398, symSize: 0x28 }
  - { offsetInCU: 0x19ACC, offset: 0x19ACC, size: 0x8, addend: 0x0, symName: __ZNSt3__117__compressed_pairIPjNS_9allocatorIjEEEC1B8ue170006IDnS3_EEOT_OT0_, symObjAddr: 0x6050, symBinAddr: 0x1000093C0, symSize: 0x3C }
  - { offsetInCU: 0x19B23, offset: 0x19B23, size: 0x8, addend: 0x0, symName: __ZNSt3__16vectorIjNS_9allocatorIjEEE16__init_with_sizeB8ue170006IPjS5_EEvT_T0_m, symObjAddr: 0x608C, symBinAddr: 0x1000093FC, symSize: 0xB8 }
  - { offsetInCU: 0x19B96, offset: 0x19B96, size: 0x8, addend: 0x0, symName: __ZNKSt3__117__compressed_pairIPjNS_9allocatorIjEEE6secondB8ue170006Ev, symObjAddr: 0x6144, symBinAddr: 0x1000094B4, symSize: 0x24 }
  - { offsetInCU: 0x19BBB, offset: 0x19BBB, size: 0x8, addend: 0x0, symName: __ZNKSt3__122__compressed_pair_elemINS_9allocatorIjEELi1ELb1EE5__getB8ue170006Ev, symObjAddr: 0x6168, symBinAddr: 0x1000094D8, symSize: 0x14 }
  - { offsetInCU: 0x19BE0, offset: 0x19BE0, size: 0x8, addend: 0x0, symName: __ZNSt3__117__compressed_pairIPjNS_9allocatorIjEEEC2B8ue170006IDnS3_EEOT_OT0_, symObjAddr: 0x617C, symBinAddr: 0x1000094EC, symSize: 0x44 }
  - { offsetInCU: 0x19C37, offset: 0x19C37, size: 0x8, addend: 0x0, symName: __ZNSt3__122__compressed_pair_elemINS_9allocatorIjEELi1ELb1EEC2B8ue170006IS2_vEEOT_, symObjAddr: 0x61C0, symBinAddr: 0x100009530, symSize: 0x18 }
  - { offsetInCU: 0x19C78, offset: 0x19C78, size: 0x8, addend: 0x0, symName: __ZNSt3__16vectorIjNS_9allocatorIjEEE11__vallocateB8ue170006Em, symObjAddr: 0x6218, symBinAddr: 0x100009588, symSize: 0xAC }
  - { offsetInCU: 0x19CBB, offset: 0x19CBB, size: 0x8, addend: 0x0, symName: __ZNSt3__16vectorIjNS_9allocatorIjEEE18__construct_at_endIPjS5_EEvT_T0_m, symObjAddr: 0x62C4, symBinAddr: 0x100009634, symSize: 0x8C }
  - { offsetInCU: 0x19D2F, offset: 0x19D2F, size: 0x8, addend: 0x0, symName: __ZNSt3__128__exception_guard_exceptionsINS_6vectorIjNS_9allocatorIjEEE16__destroy_vectorEE10__completeB8ue170006Ev, symObjAddr: 0x6350, symBinAddr: 0x1000096C0, symSize: 0x1C }
  - { offsetInCU: 0x19D54, offset: 0x19D54, size: 0x8, addend: 0x0, symName: __ZNSt3__128__exception_guard_exceptionsINS_6vectorIjNS_9allocatorIjEEE16__destroy_vectorEED1B8ue170006Ev, symObjAddr: 0x636C, symBinAddr: 0x1000096DC, symSize: 0x2C }
  - { offsetInCU: 0x19D7D, offset: 0x19D7D, size: 0x8, addend: 0x0, symName: __ZNSt3__128__exception_guard_exceptionsINS_6vectorIjNS_9allocatorIjEEE16__destroy_vectorEEC1B8ue170006ES5_, symObjAddr: 0x6398, symBinAddr: 0x100009708, symSize: 0x34 }
  - { offsetInCU: 0x19DB4, offset: 0x19DB4, size: 0x8, addend: 0x0, symName: __ZNSt3__128__exception_guard_exceptionsINS_6vectorIjNS_9allocatorIjEEE16__destroy_vectorEEC2B8ue170006ES5_, symObjAddr: 0x63CC, symBinAddr: 0x10000973C, symSize: 0x24 }
  - { offsetInCU: 0x19DEB, offset: 0x19DEB, size: 0x8, addend: 0x0, symName: __ZNKSt3__16vectorIjNS_9allocatorIjEEE8max_sizeEv, symObjAddr: 0x63F0, symBinAddr: 0x100009760, symSize: 0x60 }
  - { offsetInCU: 0x19E11, offset: 0x19E11, size: 0x8, addend: 0x0, symName: __ZNKSt3__16vectorIjNS_9allocatorIjEEE20__throw_length_errorB8ue170006Ev, symObjAddr: 0x6450, symBinAddr: 0x1000097C0, symSize: 0x1C }
  - { offsetInCU: 0x19E36, offset: 0x19E36, size: 0x8, addend: 0x0, symName: __ZNSt3__16vectorIjNS_9allocatorIjEEE9__end_capB8ue170006Ev, symObjAddr: 0x64AC, symBinAddr: 0x10000981C, symSize: 0x28 }
  - { offsetInCU: 0x19E5B, offset: 0x19E5B, size: 0x8, addend: 0x0, symName: __ZNKSt3__16vectorIjNS_9allocatorIjEEE14__annotate_newB8ue170006Em, symObjAddr: 0x64D4, symBinAddr: 0x100009844, symSize: 0xAC }
  - { offsetInCU: 0x19E8F, offset: 0x19E8F, size: 0x8, addend: 0x0, symName: __ZNSt3__116allocator_traitsINS_9allocatorIjEEE8max_sizeB8ue170006IS2_vEEmRKS2_, symObjAddr: 0x6580, symBinAddr: 0x1000098F0, symSize: 0x24 }
  - { offsetInCU: 0x19EBD, offset: 0x19EBD, size: 0x8, addend: 0x0, symName: __ZNKSt3__19allocatorIjE8max_sizeB8ue170006Ev, symObjAddr: 0x65A4, symBinAddr: 0x100009914, symSize: 0x14 }
  - { offsetInCU: 0x19EE2, offset: 0x19EE2, size: 0x8, addend: 0x0, symName: __ZNSt3__19allocatorIjE8allocateB8ue170006Em, symObjAddr: 0x65B8, symBinAddr: 0x100009928, symSize: 0x58 }
  - { offsetInCU: 0x19F15, offset: 0x19F15, size: 0x8, addend: 0x0, symName: __ZNSt3__117__compressed_pairIPjNS_9allocatorIjEEE5firstB8ue170006Ev, symObjAddr: 0x6610, symBinAddr: 0x100009980, symSize: 0x24 }
  - { offsetInCU: 0x19F3A, offset: 0x19F3A, size: 0x8, addend: 0x0, symName: __ZNSt3__122__compressed_pair_elemIPjLi0ELb0EE5__getB8ue170006Ev, symObjAddr: 0x6634, symBinAddr: 0x1000099A4, symSize: 0x14 }
  - { offsetInCU: 0x19F78, offset: 0x19F78, size: 0x8, addend: 0x0, symName: __ZNSt3__16vectorIjNS_9allocatorIjEEE21_ConstructTransactionC1B8ue170006ERS3_m, symObjAddr: 0x6648, symBinAddr: 0x1000099B8, symSize: 0x3C }
  - { offsetInCU: 0x19FBF, offset: 0x19FBF, size: 0x8, addend: 0x0, symName: __ZNSt3__16vectorIjNS_9allocatorIjEEE21_ConstructTransactionD1B8ue170006Ev, symObjAddr: 0x6704, symBinAddr: 0x100009A74, symSize: 0x2C }
  - { offsetInCU: 0x19FE8, offset: 0x19FE8, size: 0x8, addend: 0x0, symName: __ZNSt3__16vectorIjNS_9allocatorIjEEE21_ConstructTransactionC2B8ue170006ERS3_m, symObjAddr: 0x6730, symBinAddr: 0x100009AA0, symSize: 0x44 }
  - { offsetInCU: 0x1A04D, offset: 0x1A04D, size: 0x8, addend: 0x0, symName: __ZNSt3__14pairIPjS1_EC1B8ue170006IS1_S1_LPv0EEEOT_OT0_, symObjAddr: 0x68A4, symBinAddr: 0x100009C14, symSize: 0x3C }
  - { offsetInCU: 0x1A0AA, offset: 0x1A0AA, size: 0x8, addend: 0x0, symName: __ZNSt3__14pairIPjS1_EC2B8ue170006IS1_S1_LPv0EEEOT_OT0_, symObjAddr: 0x68E0, symBinAddr: 0x100009C50, symSize: 0x34 }
  - { offsetInCU: 0x1A111, offset: 0x1A111, size: 0x8, addend: 0x0, symName: __ZNKSt3__114__copy_trivialclB8ue170006IjjLi0EEENS_4pairIPT_PT0_EES4_S4_S6_, symObjAddr: 0x6A90, symBinAddr: 0x100009E00, symSize: 0x48 }
  - { offsetInCU: 0x1A178, offset: 0x1A178, size: 0x8, addend: 0x0, symName: __ZNSt3__14pairIPjS1_EC1B8ue170006IRS1_S1_LPv0EEEOT_OT0_, symObjAddr: 0x6C20, symBinAddr: 0x100009F90, symSize: 0x3C }
  - { offsetInCU: 0x1A1D5, offset: 0x1A1D5, size: 0x8, addend: 0x0, symName: __ZNSt3__14pairIPjS1_EC2B8ue170006IRS1_S1_LPv0EEEOT_OT0_, symObjAddr: 0x6C5C, symBinAddr: 0x100009FCC, symSize: 0x34 }
  - { offsetInCU: 0x1A232, offset: 0x1A232, size: 0x8, addend: 0x0, symName: __ZNSt3__118__unwrap_iter_implIPjLb1EE8__unwrapB8ue170006ES1_, symObjAddr: 0x6C90, symBinAddr: 0x10000A000, symSize: 0x24 }
  - { offsetInCU: 0x1A255, offset: 0x1A255, size: 0x8, addend: 0x0, symName: __ZNSt3__118__unwrap_iter_implIPjLb1EE8__rewrapB8ue170006ES1_S1_, symObjAddr: 0x6CB4, symBinAddr: 0x10000A024, symSize: 0x50 }
  - { offsetInCU: 0x1A286, offset: 0x1A286, size: 0x8, addend: 0x0, symName: __ZNSt3__16vectorIjNS_9allocatorIjEEE21_ConstructTransactionD2B8ue170006Ev, symObjAddr: 0x6D04, symBinAddr: 0x10000A074, symSize: 0x20 }
  - { offsetInCU: 0x1A2AF, offset: 0x1A2AF, size: 0x8, addend: 0x0, symName: __ZNSt3__128__exception_guard_exceptionsINS_6vectorIjNS_9allocatorIjEEE16__destroy_vectorEED2B8ue170006Ev, symObjAddr: 0x6D24, symBinAddr: 0x10000A094, symSize: 0x48 }
  - { offsetInCU: 0x1A2D8, offset: 0x1A2D8, size: 0x8, addend: 0x0, symName: __ZNSt3__16vectorI9CacheLineNS_9allocatorIS1_EEE21_ConstructTransactionD2B8ue170006Ev, symObjAddr: 0x6D6C, symBinAddr: 0x10000A0DC, symSize: 0x20 }
  - { offsetInCU: 0x1A301, offset: 0x1A301, size: 0x8, addend: 0x0, symName: __ZNSt3__128__exception_guard_exceptionsINS_6vectorI9CacheLineNS_9allocatorIS2_EEE16__destroy_vectorEED2B8ue170006Ev, symObjAddr: 0x6D8C, symBinAddr: 0x10000A0FC, symSize: 0x50 }
  - { offsetInCU: 0x1A32A, offset: 0x1A32A, size: 0x8, addend: 0x0, symName: __ZNSt3__16vectorI9CacheLineNS_9allocatorIS1_EEE16__destroy_vectorclB8ue170006Ev, symObjAddr: 0x6DDC, symBinAddr: 0x10000A14C, symSize: 0x90 }
  - { offsetInCU: 0x1A34F, offset: 0x1A34F, size: 0x8, addend: 0x0, symName: __ZNSt3__16vectorI9CacheLineNS_9allocatorIS1_EEE7__clearB8ue170006Ev, symObjAddr: 0x6E6C, symBinAddr: 0x10000A1DC, symSize: 0x28 }
  - { offsetInCU: 0x1A374, offset: 0x1A374, size: 0x8, addend: 0x0, symName: __ZNKSt3__16vectorI9CacheLineNS_9allocatorIS1_EEE17__annotate_deleteB8ue170006Ev, symObjAddr: 0x6E94, symBinAddr: 0x10000A204, symSize: 0xD4 }
  - { offsetInCU: 0x1A399, offset: 0x1A399, size: 0x8, addend: 0x0, symName: __ZNSt3__116allocator_traitsINS_9allocatorI9CacheLineEEE10deallocateB8ue170006ERS3_PS2_m, symObjAddr: 0x6F68, symBinAddr: 0x10000A2D8, symSize: 0x34 }
  - { offsetInCU: 0x1A3DB, offset: 0x1A3DB, size: 0x8, addend: 0x0, symName: __ZNSt3__16vectorI9CacheLineNS_9allocatorIS1_EEE22__base_destruct_at_endB8ue170006EPS1_, symObjAddr: 0x6F9C, symBinAddr: 0x10000A30C, symSize: 0x8C }
  - { offsetInCU: 0x1A41E, offset: 0x1A41E, size: 0x8, addend: 0x0, symName: __ZNSt3__116allocator_traitsINS_9allocatorI9CacheLineEEE7destroyB8ue170006IS2_vEEvRS3_PT_, symObjAddr: 0x7028, symBinAddr: 0x10000A398, symSize: 0x2C }
  - { offsetInCU: 0x1A45B, offset: 0x1A45B, size: 0x8, addend: 0x0, symName: __ZNSt3__19allocatorI9CacheLineE7destroyB8ue170006EPS1_, symObjAddr: 0x7054, symBinAddr: 0x10000A3C4, symSize: 0x28 }
  - { offsetInCU: 0x1A48E, offset: 0x1A48E, size: 0x8, addend: 0x0, symName: __ZNKSt3__16vectorI9CacheLineNS_9allocatorIS1_EEE4sizeB8ue170006Ev, symObjAddr: 0x707C, symBinAddr: 0x10000A3EC, symSize: 0x28 }
  - { offsetInCU: 0x1A4B3, offset: 0x1A4B3, size: 0x8, addend: 0x0, symName: __ZNSt3__19allocatorI9CacheLineE10deallocateB8ue170006EPS1_m, symObjAddr: 0x70A4, symBinAddr: 0x10000A414, symSize: 0x44 }
  - { offsetInCU: 0x1A4F4, offset: 0x1A4F4, size: 0x8, addend: 0x0, symName: __ZNSt3__16vectorI9CacheLineNS_9allocatorIS1_EEED2B8ue170006Ev, symObjAddr: 0x70E8, symBinAddr: 0x10000A458, symSize: 0x40 }
  - { offsetInCU: 0x1A51D, offset: 0x1A51D, size: 0x8, addend: 0x0, symName: __ZNSt3__16vectorINS0_I9CacheLineNS_9allocatorIS1_EEEENS2_IS4_EEE8__appendEmRKS4_, symObjAddr: 0x7128, symBinAddr: 0x10000A498, symSize: 0x114 }
  - { offsetInCU: 0x1A585, offset: 0x1A585, size: 0x8, addend: 0x0, symName: __ZNSt3__16vectorINS0_I9CacheLineNS_9allocatorIS1_EEEENS2_IS4_EEE17__destruct_at_endB8ue170006EPS4_, symObjAddr: 0x723C, symBinAddr: 0x10000A5AC, symSize: 0x4C }
  - { offsetInCU: 0x1A5C8, offset: 0x1A5C8, size: 0x8, addend: 0x0, symName: __ZNSt3__16vectorINS0_I9CacheLineNS_9allocatorIS1_EEEENS2_IS4_EEE9__end_capB8ue170006Ev, symObjAddr: 0x7288, symBinAddr: 0x10000A5F8, symSize: 0x28 }
  - { offsetInCU: 0x1A5ED, offset: 0x1A5ED, size: 0x8, addend: 0x0, symName: __ZNSt3__16vectorINS0_I9CacheLineNS_9allocatorIS1_EEEENS2_IS4_EEE18__construct_at_endEmRKS4_, symObjAddr: 0x72B0, symBinAddr: 0x10000A620, symSize: 0xD0 }
  - { offsetInCU: 0x1A66D, offset: 0x1A66D, size: 0x8, addend: 0x0, symName: __ZNKSt3__16vectorINS0_I9CacheLineNS_9allocatorIS1_EEEENS2_IS4_EEE11__recommendB8ue170006Em, symObjAddr: 0x7380, symBinAddr: 0x10000A6F0, symSize: 0xB4 }
  - { offsetInCU: 0x1A6C0, offset: 0x1A6C0, size: 0x8, addend: 0x0, symName: __ZNSt3__114__split_bufferINS_6vectorI9CacheLineNS_9allocatorIS2_EEEERNS3_IS5_EEEC1EmmS7_, symObjAddr: 0x7434, symBinAddr: 0x10000A7A4, symSize: 0x44 }
  - { offsetInCU: 0x1A715, offset: 0x1A715, size: 0x8, addend: 0x0, symName: __ZNSt3__114__split_bufferINS_6vectorI9CacheLineNS_9allocatorIS2_EEEERNS3_IS5_EEE18__construct_at_endEmRKS5_, symObjAddr: 0x7478, symBinAddr: 0x10000A7E8, symSize: 0xBC }
  - { offsetInCU: 0x1A766, offset: 0x1A766, size: 0x8, addend: 0x0, symName: __ZNSt3__114__split_bufferINS_6vectorI9CacheLineNS_9allocatorIS2_EEEERNS3_IS5_EEED1Ev, symObjAddr: 0x7644, symBinAddr: 0x10000A9B4, symSize: 0x2C }
  - { offsetInCU: 0x1A791, offset: 0x1A791, size: 0x8, addend: 0x0, symName: __ZNSt3__117__compressed_pairIPNS_6vectorI9CacheLineNS_9allocatorIS2_EEEENS3_IS5_EEE5firstB8ue170006Ev, symObjAddr: 0x7670, symBinAddr: 0x10000A9E0, symSize: 0x24 }
  - { offsetInCU: 0x1A7B6, offset: 0x1A7B6, size: 0x8, addend: 0x0, symName: __ZNSt3__122__compressed_pair_elemIPNS_6vectorI9CacheLineNS_9allocatorIS2_EEEELi0ELb0EE5__getB8ue170006Ev, symObjAddr: 0x7694, symBinAddr: 0x10000AA04, symSize: 0x14 }
  - { offsetInCU: 0x1A7F4, offset: 0x1A7F4, size: 0x8, addend: 0x0, symName: __ZNSt3__16vectorINS0_I9CacheLineNS_9allocatorIS1_EEEENS2_IS4_EEE21_ConstructTransactionC1B8ue170006ERS6_m, symObjAddr: 0x76A8, symBinAddr: 0x10000AA18, symSize: 0x3C }
  - { offsetInCU: 0x1A83B, offset: 0x1A83B, size: 0x8, addend: 0x0, symName: __ZNSt3__116allocator_traitsINS_9allocatorINS_6vectorI9CacheLineNS1_IS3_EEEEEEE9constructB8ue170006IS5_JRKS5_EvEEvRS6_PT_DpOT0_, symObjAddr: 0x76E4, symBinAddr: 0x10000AA54, symSize: 0x34 }
  - { offsetInCU: 0x1A892, offset: 0x1A892, size: 0x8, addend: 0x0, symName: __ZNSt3__16vectorINS0_I9CacheLineNS_9allocatorIS1_EEEENS2_IS4_EEE21_ConstructTransactionD1B8ue170006Ev, symObjAddr: 0x7718, symBinAddr: 0x10000AA88, symSize: 0x2C }
  - { offsetInCU: 0x1A8BB, offset: 0x1A8BB, size: 0x8, addend: 0x0, symName: __ZNSt3__16vectorINS0_I9CacheLineNS_9allocatorIS1_EEEENS2_IS4_EEE21_ConstructTransactionC2B8ue170006ERS6_m, symObjAddr: 0x7744, symBinAddr: 0x10000AAB4, symSize: 0x4C }
  - { offsetInCU: 0x1A902, offset: 0x1A902, size: 0x8, addend: 0x0, symName: __ZNSt3__19allocatorINS_6vectorI9CacheLineNS0_IS2_EEEEE9constructB8ue170006IS4_JRKS4_EEEvPT_DpOT0_, symObjAddr: 0x7790, symBinAddr: 0x10000AB00, symSize: 0x30 }
  - { offsetInCU: 0x1A957, offset: 0x1A957, size: 0x8, addend: 0x0, symName: __ZNSt3__16vectorI9CacheLineNS_9allocatorIS1_EEEC1ERKS4_, symObjAddr: 0x77C0, symBinAddr: 0x10000AB30, symSize: 0x34 }
  - { offsetInCU: 0x1A991, offset: 0x1A991, size: 0x8, addend: 0x0, symName: __ZNSt3__16vectorI9CacheLineNS_9allocatorIS1_EEEC2ERKS4_, symObjAddr: 0x77F4, symBinAddr: 0x10000AB64, symSize: 0x94 }
  - { offsetInCU: 0x1A9CB, offset: 0x1A9CB, size: 0x8, addend: 0x0, symName: __ZNSt3__116allocator_traitsINS_9allocatorI9CacheLineEEE37select_on_container_copy_constructionB8ue170006IS3_vvEES3_RKS3_, symObjAddr: 0x7888, symBinAddr: 0x10000ABF8, symSize: 0x10 }
  - { offsetInCU: 0x1A9FF, offset: 0x1A9FF, size: 0x8, addend: 0x0, symName: __ZNSt3__117__compressed_pairIP9CacheLineNS_9allocatorIS1_EEEC1B8ue170006IDnS4_EEOT_OT0_, symObjAddr: 0x7898, symBinAddr: 0x10000AC08, symSize: 0x3C }
  - { offsetInCU: 0x1AA56, offset: 0x1AA56, size: 0x8, addend: 0x0, symName: __ZNSt3__16vectorI9CacheLineNS_9allocatorIS1_EEE16__init_with_sizeB8ue170006IPS1_S6_EEvT_T0_m, symObjAddr: 0x78D4, symBinAddr: 0x10000AC44, symSize: 0xB8 }
  - { offsetInCU: 0x1AAC9, offset: 0x1AAC9, size: 0x8, addend: 0x0, symName: __ZNSt3__117__compressed_pairIP9CacheLineNS_9allocatorIS1_EEEC2B8ue170006IDnS4_EEOT_OT0_, symObjAddr: 0x798C, symBinAddr: 0x10000ACFC, symSize: 0x44 }
  - { offsetInCU: 0x1AB20, offset: 0x1AB20, size: 0x8, addend: 0x0, symName: __ZNSt3__122__compressed_pair_elemINS_9allocatorI9CacheLineEELi1ELb1EEC2B8ue170006IS3_vEEOT_, symObjAddr: 0x79D0, symBinAddr: 0x10000AD40, symSize: 0x18 }
  - { offsetInCU: 0x1AB61, offset: 0x1AB61, size: 0x8, addend: 0x0, symName: __ZNSt3__16vectorI9CacheLineNS_9allocatorIS1_EEE18__construct_at_endIPS1_S6_EEvT_T0_m, symObjAddr: 0x79E8, symBinAddr: 0x10000AD58, symSize: 0x8C }
  - { offsetInCU: 0x1ABF3, offset: 0x1ABF3, size: 0x8, addend: 0x0, symName: __ZNSt3__14pairIP9CacheLineS2_EC1B8ue170006IS2_S2_LPv0EEEOT_OT0_, symObjAddr: 0x7CE0, symBinAddr: 0x10000B050, symSize: 0x3C }
  - { offsetInCU: 0x1AC50, offset: 0x1AC50, size: 0x8, addend: 0x0, symName: __ZNSt3__14pairIP9CacheLineS2_EC2B8ue170006IS2_S2_LPv0EEEOT_OT0_, symObjAddr: 0x7D1C, symBinAddr: 0x10000B08C, symSize: 0x34 }
  - { offsetInCU: 0x1ACAD, offset: 0x1ACAD, size: 0x8, addend: 0x0, symName: __ZNSt3__129_AllocatorDestroyRangeReverseINS_9allocatorI9CacheLineEEPS2_EC1B8ue170006ERS3_RS4_S7_, symObjAddr: 0x7D9C, symBinAddr: 0x10000B10C, symSize: 0x44 }
  - { offsetInCU: 0x1AD03, offset: 0x1AD03, size: 0x8, addend: 0x0, symName: __ZNSt3__116allocator_traitsINS_9allocatorI9CacheLineEEE9constructB8ue170006IS2_JRS2_EvEEvRS3_PT_DpOT0_, symObjAddr: 0x7DE0, symBinAddr: 0x10000B150, symSize: 0x34 }
  - { offsetInCU: 0x1AD5A, offset: 0x1AD5A, size: 0x8, addend: 0x0, symName: __ZNSt3__128__exception_guard_exceptionsINS_29_AllocatorDestroyRangeReverseINS_9allocatorI9CacheLineEEPS3_EEE10__completeB8ue170006Ev, symObjAddr: 0x7E14, symBinAddr: 0x10000B184, symSize: 0x1C }
  - { offsetInCU: 0x1AD7F, offset: 0x1AD7F, size: 0x8, addend: 0x0, symName: __ZNSt3__128__exception_guard_exceptionsINS_29_AllocatorDestroyRangeReverseINS_9allocatorI9CacheLineEEPS3_EEED1B8ue170006Ev, symObjAddr: 0x7E30, symBinAddr: 0x10000B1A0, symSize: 0x2C }
  - { offsetInCU: 0x1ADA8, offset: 0x1ADA8, size: 0x8, addend: 0x0, symName: __ZNSt3__128__exception_guard_exceptionsINS_29_AllocatorDestroyRangeReverseINS_9allocatorI9CacheLineEEPS3_EEEC1B8ue170006ES6_, symObjAddr: 0x7E5C, symBinAddr: 0x10000B1CC, symSize: 0x34 }
  - { offsetInCU: 0x1ADE0, offset: 0x1ADE0, size: 0x8, addend: 0x0, symName: __ZNSt3__128__exception_guard_exceptionsINS_29_AllocatorDestroyRangeReverseINS_9allocatorI9CacheLineEEPS3_EEEC2B8ue170006ES6_, symObjAddr: 0x7E90, symBinAddr: 0x10000B200, symSize: 0x30 }
  - { offsetInCU: 0x1AE18, offset: 0x1AE18, size: 0x8, addend: 0x0, symName: __ZNSt3__129_AllocatorDestroyRangeReverseINS_9allocatorI9CacheLineEEPS2_EC2B8ue170006ERS3_RS4_S7_, symObjAddr: 0x7EC0, symBinAddr: 0x10000B230, symSize: 0x38 }
  - { offsetInCU: 0x1AE6E, offset: 0x1AE6E, size: 0x8, addend: 0x0, symName: __ZNSt3__19allocatorI9CacheLineE9constructB8ue170006IS1_JRS1_EEEvPT_DpOT0_, symObjAddr: 0x7EF8, symBinAddr: 0x10000B268, symSize: 0x30 }
  - { offsetInCU: 0x1AEC3, offset: 0x1AEC3, size: 0x8, addend: 0x0, symName: __ZNSt3__128__exception_guard_exceptionsINS_29_AllocatorDestroyRangeReverseINS_9allocatorI9CacheLineEEPS3_EEED2B8ue170006Ev, symObjAddr: 0x7F28, symBinAddr: 0x10000B298, symSize: 0x50 }
  - { offsetInCU: 0x1AEEC, offset: 0x1AEEC, size: 0x8, addend: 0x0, symName: __ZNKSt3__129_AllocatorDestroyRangeReverseINS_9allocatorI9CacheLineEEPS2_EclB8ue170006Ev, symObjAddr: 0x7F78, symBinAddr: 0x10000B2E8, symSize: 0x68 }
  - { offsetInCU: 0x1AF11, offset: 0x1AF11, size: 0x8, addend: 0x0, symName: __ZNSt3__116reverse_iteratorIP9CacheLineEC1B8ue170006ES2_, symObjAddr: 0x8050, symBinAddr: 0x10000B3C0, symSize: 0x34 }
  - { offsetInCU: 0x1AF48, offset: 0x1AF48, size: 0x8, addend: 0x0, symName: __ZNSt3__116reverse_iteratorIP9CacheLineEppB8ue170006Ev, symObjAddr: 0x80F0, symBinAddr: 0x10000B460, symSize: 0x20 }
  - { offsetInCU: 0x1AF6D, offset: 0x1AF6D, size: 0x8, addend: 0x0, symName: __ZNKSt3__116reverse_iteratorIP9CacheLineE4baseB8ue170006Ev, symObjAddr: 0x8110, symBinAddr: 0x10000B480, symSize: 0x18 }
  - { offsetInCU: 0x1AF97, offset: 0x1AF97, size: 0x8, addend: 0x0, symName: __ZNSt3__119__to_address_helperINS_16reverse_iteratorIP9CacheLineEEvE6__callB8ue170006ERKS4_, symObjAddr: 0x8128, symBinAddr: 0x10000B498, symSize: 0x38 }
  - { offsetInCU: 0x1AFBA, offset: 0x1AFBA, size: 0x8, addend: 0x0, symName: __ZNKSt3__116reverse_iteratorIP9CacheLineEptB8ue170006Ev, symObjAddr: 0x8160, symBinAddr: 0x10000B4D0, symSize: 0x24 }
  - { offsetInCU: 0x1AFDF, offset: 0x1AFDF, size: 0x8, addend: 0x0, symName: __ZNKSt3__116reverse_iteratorIP9CacheLineEdeB8ue170006Ev, symObjAddr: 0x8184, symBinAddr: 0x10000B4F4, symSize: 0x28 }
  - { offsetInCU: 0x1B012, offset: 0x1B012, size: 0x8, addend: 0x0, symName: __ZNSt3__116reverse_iteratorIP9CacheLineEC2B8ue170006ES2_, symObjAddr: 0x81AC, symBinAddr: 0x10000B51C, symSize: 0x28 }
  - { offsetInCU: 0x1B049, offset: 0x1B049, size: 0x8, addend: 0x0, symName: __ZNSt3__118__unwrap_iter_implIP9CacheLineLb1EE8__unwrapB8ue170006ES2_, symObjAddr: 0x81D4, symBinAddr: 0x10000B544, symSize: 0x24 }
  - { offsetInCU: 0x1B06C, offset: 0x1B06C, size: 0x8, addend: 0x0, symName: __ZNSt3__118__unwrap_iter_implIP9CacheLineLb1EE8__rewrapB8ue170006ES2_S2_, symObjAddr: 0x81F8, symBinAddr: 0x10000B568, symSize: 0x58 }
  - { offsetInCU: 0x1B09D, offset: 0x1B09D, size: 0x8, addend: 0x0, symName: __ZNSt3__16vectorINS0_I9CacheLineNS_9allocatorIS1_EEEENS2_IS4_EEE21_ConstructTransactionD2B8ue170006Ev, symObjAddr: 0x8250, symBinAddr: 0x10000B5C0, symSize: 0x20 }
  - { offsetInCU: 0x1B0C6, offset: 0x1B0C6, size: 0x8, addend: 0x0, symName: __ZNKSt3__16vectorINS0_I9CacheLineNS_9allocatorIS1_EEEENS2_IS4_EEE8max_sizeEv, symObjAddr: 0x8270, symBinAddr: 0x10000B5E0, symSize: 0x60 }
  - { offsetInCU: 0x1B0EC, offset: 0x1B0EC, size: 0x8, addend: 0x0, symName: __ZNKSt3__16vectorINS0_I9CacheLineNS_9allocatorIS1_EEEENS2_IS4_EEE20__throw_length_errorB8ue170006Ev, symObjAddr: 0x82D0, symBinAddr: 0x10000B640, symSize: 0x1C }
  - { offsetInCU: 0x1B11B, offset: 0x1B11B, size: 0x8, addend: 0x0, symName: __ZNSt3__116allocator_traitsINS_9allocatorINS_6vectorI9CacheLineNS1_IS3_EEEEEEE8max_sizeB8ue170006IS6_vEEmRKS6_, symObjAddr: 0x8318, symBinAddr: 0x10000B688, symSize: 0x24 }
  - { offsetInCU: 0x1B149, offset: 0x1B149, size: 0x8, addend: 0x0, symName: __ZNKSt3__16vectorINS0_I9CacheLineNS_9allocatorIS1_EEEENS2_IS4_EEE7__allocB8ue170006Ev, symObjAddr: 0x833C, symBinAddr: 0x10000B6AC, symSize: 0x28 }
  - { offsetInCU: 0x1B16E, offset: 0x1B16E, size: 0x8, addend: 0x0, symName: __ZNKSt3__19allocatorINS_6vectorI9CacheLineNS0_IS2_EEEEE8max_sizeB8ue170006Ev, symObjAddr: 0x8364, symBinAddr: 0x10000B6D4, symSize: 0x18 }
  - { offsetInCU: 0x1B193, offset: 0x1B193, size: 0x8, addend: 0x0, symName: __ZNKSt3__117__compressed_pairIPNS_6vectorI9CacheLineNS_9allocatorIS2_EEEENS3_IS5_EEE6secondB8ue170006Ev, symObjAddr: 0x837C, symBinAddr: 0x10000B6EC, symSize: 0x24 }
  - { offsetInCU: 0x1B1B8, offset: 0x1B1B8, size: 0x8, addend: 0x0, symName: __ZNKSt3__122__compressed_pair_elemINS_9allocatorINS_6vectorI9CacheLineNS1_IS3_EEEEEELi1ELb1EE5__getB8ue170006Ev, symObjAddr: 0x83A0, symBinAddr: 0x10000B710, symSize: 0x14 }
  - { offsetInCU: 0x1B1DD, offset: 0x1B1DD, size: 0x8, addend: 0x0, symName: __ZNSt3__114__split_bufferINS_6vectorI9CacheLineNS_9allocatorIS2_EEEERNS3_IS5_EEEC2EmmS7_, symObjAddr: 0x8408, symBinAddr: 0x10000B778, symSize: 0xE0 }
  - { offsetInCU: 0x1B250, offset: 0x1B250, size: 0x8, addend: 0x0, symName: __ZNSt3__117__compressed_pairIPNS_6vectorI9CacheLineNS_9allocatorIS2_EEEERNS3_IS5_EEEC1B8ue170006IDnS8_EEOT_OT0_, symObjAddr: 0x84E8, symBinAddr: 0x10000B858, symSize: 0x3C }
  - { offsetInCU: 0x1B2A7, offset: 0x1B2A7, size: 0x8, addend: 0x0, symName: __ZNSt3__114__split_bufferINS_6vectorI9CacheLineNS_9allocatorIS2_EEEERNS3_IS5_EEE7__allocB8ue170006Ev, symObjAddr: 0x8564, symBinAddr: 0x10000B8D4, symSize: 0x28 }
  - { offsetInCU: 0x1B2CC, offset: 0x1B2CC, size: 0x8, addend: 0x0, symName: __ZNSt3__114__split_bufferINS_6vectorI9CacheLineNS_9allocatorIS2_EEEERNS3_IS5_EEE9__end_capB8ue170006Ev, symObjAddr: 0x858C, symBinAddr: 0x10000B8FC, symSize: 0x28 }
  - { offsetInCU: 0x1B2F1, offset: 0x1B2F1, size: 0x8, addend: 0x0, symName: __ZNSt3__117__compressed_pairIPNS_6vectorI9CacheLineNS_9allocatorIS2_EEEERNS3_IS5_EEEC2B8ue170006IDnS8_EEOT_OT0_, symObjAddr: 0x85B4, symBinAddr: 0x10000B924, symSize: 0x48 }
  - { offsetInCU: 0x1B348, offset: 0x1B348, size: 0x8, addend: 0x0, symName: __ZNSt3__122__compressed_pair_elemIRNS_9allocatorINS_6vectorI9CacheLineNS1_IS3_EEEEEELi1ELb0EEC2B8ue170006IS7_vEEOT_, symObjAddr: 0x85FC, symBinAddr: 0x10000B96C, symSize: 0x20 }
  - { offsetInCU: 0x1B389, offset: 0x1B389, size: 0x8, addend: 0x0, symName: __ZNSt3__19allocatorINS_6vectorI9CacheLineNS0_IS2_EEEEE8allocateB8ue170006Em, symObjAddr: 0x861C, symBinAddr: 0x10000B98C, symSize: 0x5C }
  - { offsetInCU: 0x1B3BC, offset: 0x1B3BC, size: 0x8, addend: 0x0, symName: __ZNSt3__117__compressed_pairIPNS_6vectorI9CacheLineNS_9allocatorIS2_EEEERNS3_IS5_EEE6secondB8ue170006Ev, symObjAddr: 0x8678, symBinAddr: 0x10000B9E8, symSize: 0x28 }
  - { offsetInCU: 0x1B3E1, offset: 0x1B3E1, size: 0x8, addend: 0x0, symName: __ZNSt3__122__compressed_pair_elemIRNS_9allocatorINS_6vectorI9CacheLineNS1_IS3_EEEEEELi1ELb0EE5__getB8ue170006Ev, symObjAddr: 0x86A0, symBinAddr: 0x10000BA10, symSize: 0x18 }
  - { offsetInCU: 0x1B406, offset: 0x1B406, size: 0x8, addend: 0x0, symName: __ZNSt3__117__compressed_pairIPNS_6vectorI9CacheLineNS_9allocatorIS2_EEEERNS3_IS5_EEE5firstB8ue170006Ev, symObjAddr: 0x86B8, symBinAddr: 0x10000BA28, symSize: 0x24 }
  - { offsetInCU: 0x1B435, offset: 0x1B435, size: 0x8, addend: 0x0, symName: __ZNSt3__114__split_bufferINS_6vectorI9CacheLineNS_9allocatorIS2_EEEERNS3_IS5_EEE21_ConstructTransactionC1B8ue170006EPPS5_m, symObjAddr: 0x86DC, symBinAddr: 0x10000BA4C, symSize: 0x3C }
  - { offsetInCU: 0x1B47A, offset: 0x1B47A, size: 0x8, addend: 0x0, symName: __ZNSt3__114__split_bufferINS_6vectorI9CacheLineNS_9allocatorIS2_EEEERNS3_IS5_EEE21_ConstructTransactionD1B8ue170006Ev, symObjAddr: 0x8718, symBinAddr: 0x10000BA88, symSize: 0x2C }
  - { offsetInCU: 0x1B4A3, offset: 0x1B4A3, size: 0x8, addend: 0x0, symName: __ZNSt3__114__split_bufferINS_6vectorI9CacheLineNS_9allocatorIS2_EEEERNS3_IS5_EEE21_ConstructTransactionC2B8ue170006EPPS5_m, symObjAddr: 0x8744, symBinAddr: 0x10000BAB4, symSize: 0x4C }
  - { offsetInCU: 0x1B4E8, offset: 0x1B4E8, size: 0x8, addend: 0x0, symName: __ZNSt3__114__split_bufferINS_6vectorI9CacheLineNS_9allocatorIS2_EEEERNS3_IS5_EEE21_ConstructTransactionD2B8ue170006Ev, symObjAddr: 0x8790, symBinAddr: 0x10000BB00, symSize: 0x20 }
  - { offsetInCU: 0x1B511, offset: 0x1B511, size: 0x8, addend: 0x0, symName: __ZNSt3__116reverse_iteratorIPNS_6vectorI9CacheLineNS_9allocatorIS2_EEEEEC1B8ue170006ES6_, symObjAddr: 0x88DC, symBinAddr: 0x10000BC4C, symSize: 0x34 }
  - { offsetInCU: 0x1B548, offset: 0x1B548, size: 0x8, addend: 0x0, symName: __ZNKSt3__116reverse_iteratorIPNS_6vectorI9CacheLineNS_9allocatorIS2_EEEEE4baseB8ue170006Ev, symObjAddr: 0x8910, symBinAddr: 0x10000BC80, symSize: 0x18 }
  - { offsetInCU: 0x1B56D, offset: 0x1B56D, size: 0x8, addend: 0x0, symName: __ZNKSt3__16vectorINS0_I9CacheLineNS_9allocatorIS1_EEEENS2_IS4_EEE14__annotate_newB8ue170006Em, symObjAddr: 0x8964, symBinAddr: 0x10000BCD4, symSize: 0xC8 }
  - { offsetInCU: 0x1B5A1, offset: 0x1B5A1, size: 0x8, addend: 0x0, symName: __ZNSt3__129_AllocatorDestroyRangeReverseINS_9allocatorINS_6vectorI9CacheLineNS1_IS3_EEEEEENS_16reverse_iteratorIPS5_EEEC1B8ue170006ERS6_RS9_SC_, symObjAddr: 0x8A78, symBinAddr: 0x10000BDE8, symSize: 0x44 }
  - { offsetInCU: 0x1B5F7, offset: 0x1B5F7, size: 0x8, addend: 0x0, symName: __ZNSt3__116allocator_traitsINS_9allocatorINS_6vectorI9CacheLineNS1_IS3_EEEEEEE9constructB8ue170006IS5_JS5_EvEEvRS6_PT_DpOT0_, symObjAddr: 0x8B04, symBinAddr: 0x10000BE74, symSize: 0x34 }
  - { offsetInCU: 0x1B64E, offset: 0x1B64E, size: 0x8, addend: 0x0, symName: __ZNKSt3__116reverse_iteratorIPNS_6vectorI9CacheLineNS_9allocatorIS2_EEEEEdeB8ue170006Ev, symObjAddr: 0x8B5C, symBinAddr: 0x10000BECC, symSize: 0x28 }
  - { offsetInCU: 0x1B681, offset: 0x1B681, size: 0x8, addend: 0x0, symName: __ZNSt3__116reverse_iteratorIPNS_6vectorI9CacheLineNS_9allocatorIS2_EEEEEppB8ue170006Ev, symObjAddr: 0x8B84, symBinAddr: 0x10000BEF4, symSize: 0x20 }
  - { offsetInCU: 0x1B6A6, offset: 0x1B6A6, size: 0x8, addend: 0x0, symName: __ZNSt3__128__exception_guard_exceptionsINS_29_AllocatorDestroyRangeReverseINS_9allocatorINS_6vectorI9CacheLineNS2_IS4_EEEEEENS_16reverse_iteratorIPS6_EEEEE10__completeB8ue170006Ev, symObjAddr: 0x8BA4, symBinAddr: 0x10000BF14, symSize: 0x1C }
  - { offsetInCU: 0x1B6CB, offset: 0x1B6CB, size: 0x8, addend: 0x0, symName: __ZNSt3__128__exception_guard_exceptionsINS_29_AllocatorDestroyRangeReverseINS_9allocatorINS_6vectorI9CacheLineNS2_IS4_EEEEEENS_16reverse_iteratorIPS6_EEEEED1B8ue170006Ev, symObjAddr: 0x8BC0, symBinAddr: 0x10000BF30, symSize: 0x2C }
  - { offsetInCU: 0x1B6F4, offset: 0x1B6F4, size: 0x8, addend: 0x0, symName: __ZNSt3__128__exception_guard_exceptionsINS_29_AllocatorDestroyRangeReverseINS_9allocatorINS_6vectorI9CacheLineNS2_IS4_EEEEEENS_16reverse_iteratorIPS6_EEEEEC1B8ue170006ESB_, symObjAddr: 0x8BEC, symBinAddr: 0x10000BF5C, symSize: 0x34 }
  - { offsetInCU: 0x1B72C, offset: 0x1B72C, size: 0x8, addend: 0x0, symName: __ZNSt3__128__exception_guard_exceptionsINS_29_AllocatorDestroyRangeReverseINS_9allocatorINS_6vectorI9CacheLineNS2_IS4_EEEEEENS_16reverse_iteratorIPS6_EEEEEC2B8ue170006ESB_, symObjAddr: 0x8C20, symBinAddr: 0x10000BF90, symSize: 0x30 }
  - { offsetInCU: 0x1B764, offset: 0x1B764, size: 0x8, addend: 0x0, symName: __ZNSt3__129_AllocatorDestroyRangeReverseINS_9allocatorINS_6vectorI9CacheLineNS1_IS3_EEEEEENS_16reverse_iteratorIPS5_EEEC2B8ue170006ERS6_RS9_SC_, symObjAddr: 0x8C50, symBinAddr: 0x10000BFC0, symSize: 0x38 }
  - { offsetInCU: 0x1B7BA, offset: 0x1B7BA, size: 0x8, addend: 0x0, symName: __ZNSt3__19allocatorINS_6vectorI9CacheLineNS0_IS2_EEEEE9constructB8ue170006IS4_JS4_EEEvPT_DpOT0_, symObjAddr: 0x8C88, symBinAddr: 0x10000BFF8, symSize: 0x30 }
  - { offsetInCU: 0x1B80F, offset: 0x1B80F, size: 0x8, addend: 0x0, symName: __ZNSt3__16vectorI9CacheLineNS_9allocatorIS1_EEEC1B8ue170006EOS4_, symObjAddr: 0x8CB8, symBinAddr: 0x10000C028, symSize: 0x34 }
  - { offsetInCU: 0x1B849, offset: 0x1B849, size: 0x8, addend: 0x0, symName: __ZNSt3__16vectorI9CacheLineNS_9allocatorIS1_EEEC2B8ue170006EOS4_, symObjAddr: 0x8CEC, symBinAddr: 0x10000C05C, symSize: 0xC4 }
  - { offsetInCU: 0x1B888, offset: 0x1B888, size: 0x8, addend: 0x0, symName: __ZNSt3__119__to_address_helperINS_16reverse_iteratorIPNS_6vectorI9CacheLineNS_9allocatorIS3_EEEEEEvE6__callB8ue170006ERKS8_, symObjAddr: 0x8DB0, symBinAddr: 0x10000C120, symSize: 0x38 }
  - { offsetInCU: 0x1B8AB, offset: 0x1B8AB, size: 0x8, addend: 0x0, symName: __ZNKSt3__116reverse_iteratorIPNS_6vectorI9CacheLineNS_9allocatorIS2_EEEEEptB8ue170006Ev, symObjAddr: 0x8DE8, symBinAddr: 0x10000C158, symSize: 0x24 }
  - { offsetInCU: 0x1B8D0, offset: 0x1B8D0, size: 0x8, addend: 0x0, symName: __ZNSt3__128__exception_guard_exceptionsINS_29_AllocatorDestroyRangeReverseINS_9allocatorINS_6vectorI9CacheLineNS2_IS4_EEEEEENS_16reverse_iteratorIPS6_EEEEED2B8ue170006Ev, symObjAddr: 0x8E0C, symBinAddr: 0x10000C17C, symSize: 0x50 }
  - { offsetInCU: 0x1B8F9, offset: 0x1B8F9, size: 0x8, addend: 0x0, symName: __ZNKSt3__129_AllocatorDestroyRangeReverseINS_9allocatorINS_6vectorI9CacheLineNS1_IS3_EEEEEENS_16reverse_iteratorIPS5_EEEclB8ue170006Ev, symObjAddr: 0x8E5C, symBinAddr: 0x10000C1CC, symSize: 0xB4 }
  - { offsetInCU: 0x1B91F, offset: 0x1B91F, size: 0x8, addend: 0x0, symName: __ZNSt3__116reverse_iteratorINS0_IPNS_6vectorI9CacheLineNS_9allocatorIS2_EEEEEEEC1B8ue170006ES7_, symObjAddr: 0x8F80, symBinAddr: 0x10000C2F0, symSize: 0x3C }
  - { offsetInCU: 0x1B956, offset: 0x1B956, size: 0x8, addend: 0x0, symName: __ZNSt3__116reverse_iteratorINS0_IPNS_6vectorI9CacheLineNS_9allocatorIS2_EEEEEEEppB8ue170006Ev, symObjAddr: 0x9040, symBinAddr: 0x10000C3B0, symSize: 0x30 }
  - { offsetInCU: 0x1B97B, offset: 0x1B97B, size: 0x8, addend: 0x0, symName: __ZNKSt3__116reverse_iteratorINS0_IPNS_6vectorI9CacheLineNS_9allocatorIS2_EEEEEEE4baseB8ue170006Ev, symObjAddr: 0x9070, symBinAddr: 0x10000C3E0, symSize: 0x24 }
  - { offsetInCU: 0x1B9A5, offset: 0x1B9A5, size: 0x8, addend: 0x0, symName: __ZNSt3__119__to_address_helperINS_16reverse_iteratorINS1_IPNS_6vectorI9CacheLineNS_9allocatorIS3_EEEEEEEEvE6__callB8ue170006ERKS9_, symObjAddr: 0x9094, symBinAddr: 0x10000C404, symSize: 0x38 }
  - { offsetInCU: 0x1B9C8, offset: 0x1B9C8, size: 0x8, addend: 0x0, symName: __ZNKSt3__116reverse_iteratorINS0_IPNS_6vectorI9CacheLineNS_9allocatorIS2_EEEEEEEptB8ue170006Ev, symObjAddr: 0x90CC, symBinAddr: 0x10000C43C, symSize: 0x24 }
  - { offsetInCU: 0x1B9ED, offset: 0x1B9ED, size: 0x8, addend: 0x0, symName: __ZNKSt3__116reverse_iteratorINS0_IPNS_6vectorI9CacheLineNS_9allocatorIS2_EEEEEEEdeB8ue170006Ev, symObjAddr: 0x90F0, symBinAddr: 0x10000C460, symSize: 0x34 }
  - { offsetInCU: 0x1BA20, offset: 0x1BA20, size: 0x8, addend: 0x0, symName: __ZNSt3__116reverse_iteratorIPNS_6vectorI9CacheLineNS_9allocatorIS2_EEEEEmmB8ue170006Ev, symObjAddr: 0x9124, symBinAddr: 0x10000C494, symSize: 0x20 }
  - { offsetInCU: 0x1BA45, offset: 0x1BA45, size: 0x8, addend: 0x0, symName: __ZNSt3__116reverse_iteratorINS0_IPNS_6vectorI9CacheLineNS_9allocatorIS2_EEEEEEEC2B8ue170006ES7_, symObjAddr: 0x9144, symBinAddr: 0x10000C4B4, symSize: 0x2C }
  - { offsetInCU: 0x1BA7C, offset: 0x1BA7C, size: 0x8, addend: 0x0, symName: __ZNSt3__116reverse_iteratorIPNS_6vectorI9CacheLineNS_9allocatorIS2_EEEEEC2B8ue170006ES6_, symObjAddr: 0x9170, symBinAddr: 0x10000C4E0, symSize: 0x28 }
  - { offsetInCU: 0x1BAB3, offset: 0x1BAB3, size: 0x8, addend: 0x0, symName: __ZNSt3__114__split_bufferINS_6vectorI9CacheLineNS_9allocatorIS2_EEEERNS3_IS5_EEED2Ev, symObjAddr: 0x9198, symBinAddr: 0x10000C508, symSize: 0x8C }
  - { offsetInCU: 0x1BADE, offset: 0x1BADE, size: 0x8, addend: 0x0, symName: __ZNSt3__114__split_bufferINS_6vectorI9CacheLineNS_9allocatorIS2_EEEERNS3_IS5_EEE5clearB8ue170006Ev, symObjAddr: 0x9224, symBinAddr: 0x10000C594, symSize: 0x28 }
  - { offsetInCU: 0x1BB03, offset: 0x1BB03, size: 0x8, addend: 0x0, symName: __ZNKSt3__114__split_bufferINS_6vectorI9CacheLineNS_9allocatorIS2_EEEERNS3_IS5_EEE8capacityB8ue170006Ev, symObjAddr: 0x924C, symBinAddr: 0x10000C5BC, symSize: 0x40 }
  - { offsetInCU: 0x1BB28, offset: 0x1BB28, size: 0x8, addend: 0x0, symName: __ZNSt3__114__split_bufferINS_6vectorI9CacheLineNS_9allocatorIS2_EEEERNS3_IS5_EEE17__destruct_at_endB8ue170006EPS5_, symObjAddr: 0x928C, symBinAddr: 0x10000C5FC, symSize: 0x2C }
  - { offsetInCU: 0x1BB5B, offset: 0x1BB5B, size: 0x8, addend: 0x0, symName: __ZNSt3__114__split_bufferINS_6vectorI9CacheLineNS_9allocatorIS2_EEEERNS3_IS5_EEE17__destruct_at_endB8ue170006EPS5_NS_17integral_constantIbLb0EEE, symObjAddr: 0x92B8, symBinAddr: 0x10000C628, symSize: 0x80 }
  - { offsetInCU: 0x1BB9A, offset: 0x1BB9A, size: 0x8, addend: 0x0, symName: __ZNKSt3__114__split_bufferINS_6vectorI9CacheLineNS_9allocatorIS2_EEEERNS3_IS5_EEE9__end_capB8ue170006Ev, symObjAddr: 0x9338, symBinAddr: 0x10000C6A8, symSize: 0x28 }
  - { offsetInCU: 0x1BBBF, offset: 0x1BBBF, size: 0x8, addend: 0x0, symName: __ZNKSt3__117__compressed_pairIPNS_6vectorI9CacheLineNS_9allocatorIS2_EEEERNS3_IS5_EEE5firstB8ue170006Ev, symObjAddr: 0x9360, symBinAddr: 0x10000C6D0, symSize: 0x24 }
  - { offsetInCU: 0x1BBE4, offset: 0x1BBE4, size: 0x8, addend: 0x0, symName: __ZNKSt3__16vectorINS0_I9CacheLineNS_9allocatorIS1_EEEENS2_IS4_EEE17__annotate_shrinkB8ue170006Em, symObjAddr: 0x9384, symBinAddr: 0x10000C6F4, symSize: 0xD0 }
  - { offsetInCU: 0x1BC18, offset: 0x1BC18, size: 0x8, addend: 0x0, symName: __ZNSt3__16vectorINS0_INS_4pairIcjEENS_9allocatorIS2_EEEENS3_IS5_EEEC2Em, symObjAddr: 0x9454, symBinAddr: 0x10000C7C4, symSize: 0xD4 }
  - { offsetInCU: 0x1BC67, offset: 0x1BC67, size: 0x8, addend: 0x0, symName: __ZNSt3__117__compressed_pairIPNS_6vectorINS_4pairIcjEENS_9allocatorIS3_EEEENS4_IS6_EEEC1B8ue170006IDnNS_18__default_init_tagEEEOT_OT0_, symObjAddr: 0x9528, symBinAddr: 0x10000C898, symSize: 0x3C }
  - { offsetInCU: 0x1BCBE, offset: 0x1BCBE, size: 0x8, addend: 0x0, symName: __ZNSt3__16vectorINS0_INS_4pairIcjEENS_9allocatorIS2_EEEENS3_IS5_EEE16__destroy_vectorC1B8ue170006ERS7_, symObjAddr: 0x95A4, symBinAddr: 0x10000C914, symSize: 0x34 }
  - { offsetInCU: 0x1BCF6, offset: 0x1BCF6, size: 0x8, addend: 0x0, symName: __ZNSt3__16vectorINS0_INS_4pairIcjEENS_9allocatorIS2_EEEENS3_IS5_EEE11__vallocateB8ue170006Em, symObjAddr: 0x95D8, symBinAddr: 0x10000C948, symSize: 0xB4 }
  - { offsetInCU: 0x1BD39, offset: 0x1BD39, size: 0x8, addend: 0x0, symName: __ZNSt3__16vectorINS0_INS_4pairIcjEENS_9allocatorIS2_EEEENS3_IS5_EEE18__construct_at_endEm, symObjAddr: 0x968C, symBinAddr: 0x10000C9FC, symSize: 0xC8 }
  - { offsetInCU: 0x1BDAA, offset: 0x1BDAA, size: 0x8, addend: 0x0, symName: __ZNSt3__128__exception_guard_exceptionsINS_6vectorINS1_INS_4pairIcjEENS_9allocatorIS3_EEEENS4_IS6_EEE16__destroy_vectorEE10__completeB8ue170006Ev, symObjAddr: 0x9754, symBinAddr: 0x10000CAC4, symSize: 0x1C }
  - { offsetInCU: 0x1BDCF, offset: 0x1BDCF, size: 0x8, addend: 0x0, symName: __ZNSt3__128__exception_guard_exceptionsINS_6vectorINS1_INS_4pairIcjEENS_9allocatorIS3_EEEENS4_IS6_EEE16__destroy_vectorEED1B8ue170006Ev, symObjAddr: 0x9770, symBinAddr: 0x10000CAE0, symSize: 0x2C }
  - { offsetInCU: 0x1BDF8, offset: 0x1BDF8, size: 0x8, addend: 0x0, symName: __ZNSt3__117__compressed_pairIPNS_6vectorINS_4pairIcjEENS_9allocatorIS3_EEEENS4_IS6_EEEC2B8ue170006IDnNS_18__default_init_tagEEEOT_OT0_, symObjAddr: 0x979C, symBinAddr: 0x10000CB0C, symSize: 0x40 }
  - { offsetInCU: 0x1BE4F, offset: 0x1BE4F, size: 0x8, addend: 0x0, symName: __ZNSt3__122__compressed_pair_elemIPNS_6vectorINS_4pairIcjEENS_9allocatorIS3_EEEELi0ELb0EEC2B8ue170006IDnvEEOT_, symObjAddr: 0x97DC, symBinAddr: 0x10000CB4C, symSize: 0x1C }
  - { offsetInCU: 0x1BE90, offset: 0x1BE90, size: 0x8, addend: 0x0, symName: __ZNSt3__122__compressed_pair_elemINS_9allocatorINS_6vectorINS_4pairIcjEENS1_IS4_EEEEEELi1ELb1EEC2B8ue170006ENS_18__default_init_tagE, symObjAddr: 0x97F8, symBinAddr: 0x10000CB68, symSize: 0x2C }
  - { offsetInCU: 0x1BEC4, offset: 0x1BEC4, size: 0x8, addend: 0x0, symName: __ZNSt3__19allocatorINS_6vectorINS_4pairIcjEENS0_IS3_EEEEEC2B8ue170006Ev, symObjAddr: 0x9824, symBinAddr: 0x10000CB94, symSize: 0x2C }
  - { offsetInCU: 0x1BEED, offset: 0x1BEED, size: 0x8, addend: 0x0, symName: __ZNSt3__116__non_trivial_ifILb1ENS_9allocatorINS_6vectorINS_4pairIcjEENS1_IS4_EEEEEEEC2B8ue170006Ev, symObjAddr: 0x9850, symBinAddr: 0x10000CBC0, symSize: 0x14 }
  - { offsetInCU: 0x1BF16, offset: 0x1BF16, size: 0x8, addend: 0x0, symName: __ZNSt3__128__exception_guard_exceptionsINS_6vectorINS1_INS_4pairIcjEENS_9allocatorIS3_EEEENS4_IS6_EEE16__destroy_vectorEEC1B8ue170006ES9_, symObjAddr: 0x9864, symBinAddr: 0x10000CBD4, symSize: 0x34 }
  - { offsetInCU: 0x1BF4D, offset: 0x1BF4D, size: 0x8, addend: 0x0, symName: __ZNSt3__128__exception_guard_exceptionsINS_6vectorINS1_INS_4pairIcjEENS_9allocatorIS3_EEEENS4_IS6_EEE16__destroy_vectorEEC2B8ue170006ES9_, symObjAddr: 0x9898, symBinAddr: 0x10000CC08, symSize: 0x24 }
  - { offsetInCU: 0x1BF84, offset: 0x1BF84, size: 0x8, addend: 0x0, symName: __ZNSt3__16vectorINS0_INS_4pairIcjEENS_9allocatorIS2_EEEENS3_IS5_EEE16__destroy_vectorC2B8ue170006ERS7_, symObjAddr: 0x98BC, symBinAddr: 0x10000CC2C, symSize: 0x20 }
  - { offsetInCU: 0x1BFBC, offset: 0x1BFBC, size: 0x8, addend: 0x0, symName: __ZNKSt3__16vectorINS0_INS_4pairIcjEENS_9allocatorIS2_EEEENS3_IS5_EEE8max_sizeEv, symObjAddr: 0x98DC, symBinAddr: 0x10000CC4C, symSize: 0x60 }
  - { offsetInCU: 0x1BFE2, offset: 0x1BFE2, size: 0x8, addend: 0x0, symName: __ZNKSt3__16vectorINS0_INS_4pairIcjEENS_9allocatorIS2_EEEENS3_IS5_EEE20__throw_length_errorB8ue170006Ev, symObjAddr: 0x993C, symBinAddr: 0x10000CCAC, symSize: 0x1C }
  - { offsetInCU: 0x1C007, offset: 0x1C007, size: 0x8, addend: 0x0, symName: __ZNSt3__16vectorINS0_INS_4pairIcjEENS_9allocatorIS2_EEEENS3_IS5_EEE7__allocB8ue170006Ev, symObjAddr: 0x9998, symBinAddr: 0x10000CD08, symSize: 0x28 }
  - { offsetInCU: 0x1C02C, offset: 0x1C02C, size: 0x8, addend: 0x0, symName: __ZNSt3__16vectorINS0_INS_4pairIcjEENS_9allocatorIS2_EEEENS3_IS5_EEE9__end_capB8ue170006Ev, symObjAddr: 0x99C0, symBinAddr: 0x10000CD30, symSize: 0x28 }
  - { offsetInCU: 0x1C051, offset: 0x1C051, size: 0x8, addend: 0x0, symName: __ZNKSt3__16vectorINS0_INS_4pairIcjEENS_9allocatorIS2_EEEENS3_IS5_EEE14__annotate_newB8ue170006Em, symObjAddr: 0x99E8, symBinAddr: 0x10000CD58, symSize: 0xC8 }
  - { offsetInCU: 0x1C08F, offset: 0x1C08F, size: 0x8, addend: 0x0, symName: __ZNSt3__116allocator_traitsINS_9allocatorINS_6vectorINS_4pairIcjEENS1_IS4_EEEEEEE8max_sizeB8ue170006IS7_vEEmRKS7_, symObjAddr: 0x9AB0, symBinAddr: 0x10000CE20, symSize: 0x24 }
  - { offsetInCU: 0x1C0BD, offset: 0x1C0BD, size: 0x8, addend: 0x0, symName: __ZNKSt3__16vectorINS0_INS_4pairIcjEENS_9allocatorIS2_EEEENS3_IS5_EEE7__allocB8ue170006Ev, symObjAddr: 0x9AD4, symBinAddr: 0x10000CE44, symSize: 0x28 }
  - { offsetInCU: 0x1C0E2, offset: 0x1C0E2, size: 0x8, addend: 0x0, symName: __ZNKSt3__19allocatorINS_6vectorINS_4pairIcjEENS0_IS3_EEEEE8max_sizeB8ue170006Ev, symObjAddr: 0x9AFC, symBinAddr: 0x10000CE6C, symSize: 0x18 }
  - { offsetInCU: 0x1C107, offset: 0x1C107, size: 0x8, addend: 0x0, symName: __ZNKSt3__117__compressed_pairIPNS_6vectorINS_4pairIcjEENS_9allocatorIS3_EEEENS4_IS6_EEE6secondB8ue170006Ev, symObjAddr: 0x9B14, symBinAddr: 0x10000CE84, symSize: 0x24 }
  - { offsetInCU: 0x1C12C, offset: 0x1C12C, size: 0x8, addend: 0x0, symName: __ZNKSt3__122__compressed_pair_elemINS_9allocatorINS_6vectorINS_4pairIcjEENS1_IS4_EEEEEELi1ELb1EE5__getB8ue170006Ev, symObjAddr: 0x9B38, symBinAddr: 0x10000CEA8, symSize: 0x14 }
  - { offsetInCU: 0x1C151, offset: 0x1C151, size: 0x8, addend: 0x0, symName: __ZNSt3__19allocatorINS_6vectorINS_4pairIcjEENS0_IS3_EEEEE8allocateB8ue170006Em, symObjAddr: 0x9B4C, symBinAddr: 0x10000CEBC, symSize: 0x5C }
  - { offsetInCU: 0x1C184, offset: 0x1C184, size: 0x8, addend: 0x0, symName: __ZNSt3__117__compressed_pairIPNS_6vectorINS_4pairIcjEENS_9allocatorIS3_EEEENS4_IS6_EEE6secondB8ue170006Ev, symObjAddr: 0x9BA8, symBinAddr: 0x10000CF18, symSize: 0x24 }
  - { offsetInCU: 0x1C1A9, offset: 0x1C1A9, size: 0x8, addend: 0x0, symName: __ZNSt3__122__compressed_pair_elemINS_9allocatorINS_6vectorINS_4pairIcjEENS1_IS4_EEEEEELi1ELb1EE5__getB8ue170006Ev, symObjAddr: 0x9BCC, symBinAddr: 0x10000CF3C, symSize: 0x14 }
  - { offsetInCU: 0x1C1CE, offset: 0x1C1CE, size: 0x8, addend: 0x0, symName: __ZNSt3__117__compressed_pairIPNS_6vectorINS_4pairIcjEENS_9allocatorIS3_EEEENS4_IS6_EEE5firstB8ue170006Ev, symObjAddr: 0x9BE0, symBinAddr: 0x10000CF50, symSize: 0x24 }
  - { offsetInCU: 0x1C1F3, offset: 0x1C1F3, size: 0x8, addend: 0x0, symName: __ZNSt3__122__compressed_pair_elemIPNS_6vectorINS_4pairIcjEENS_9allocatorIS3_EEEELi0ELb0EE5__getB8ue170006Ev, symObjAddr: 0x9C04, symBinAddr: 0x10000CF74, symSize: 0x14 }
  - { offsetInCU: 0x1C218, offset: 0x1C218, size: 0x8, addend: 0x0, symName: __ZNKSt3__16vectorINS0_INS_4pairIcjEENS_9allocatorIS2_EEEENS3_IS5_EEE31__annotate_contiguous_containerB8ue170006EPKvS9_S9_S9_, symObjAddr: 0x9C18, symBinAddr: 0x10000CF88, symSize: 0x20 }
  - { offsetInCU: 0x1C269, offset: 0x1C269, size: 0x8, addend: 0x0, symName: __ZNKSt3__16vectorINS0_INS_4pairIcjEENS_9allocatorIS2_EEEENS3_IS5_EEE4dataB8ue170006Ev, symObjAddr: 0x9C38, symBinAddr: 0x10000CFA8, symSize: 0x28 }
  - { offsetInCU: 0x1C28E, offset: 0x1C28E, size: 0x8, addend: 0x0, symName: __ZNKSt3__16vectorINS0_INS_4pairIcjEENS_9allocatorIS2_EEEENS3_IS5_EEE8capacityB8ue170006Ev, symObjAddr: 0x9C60, symBinAddr: 0x10000CFD0, symSize: 0x40 }
  - { offsetInCU: 0x1C2B3, offset: 0x1C2B3, size: 0x8, addend: 0x0, symName: __ZNKSt3__16vectorINS0_INS_4pairIcjEENS_9allocatorIS2_EEEENS3_IS5_EEE9__end_capB8ue170006Ev, symObjAddr: 0x9CB4, symBinAddr: 0x10000D024, symSize: 0x28 }
  - { offsetInCU: 0x1C2D8, offset: 0x1C2D8, size: 0x8, addend: 0x0, symName: __ZNKSt3__117__compressed_pairIPNS_6vectorINS_4pairIcjEENS_9allocatorIS3_EEEENS4_IS6_EEE5firstB8ue170006Ev, symObjAddr: 0x9CDC, symBinAddr: 0x10000D04C, symSize: 0x24 }
  - { offsetInCU: 0x1C2FD, offset: 0x1C2FD, size: 0x8, addend: 0x0, symName: __ZNKSt3__122__compressed_pair_elemIPNS_6vectorINS_4pairIcjEENS_9allocatorIS3_EEEELi0ELb0EE5__getB8ue170006Ev, symObjAddr: 0x9D00, symBinAddr: 0x10000D070, symSize: 0x14 }
  - { offsetInCU: 0x1C33B, offset: 0x1C33B, size: 0x8, addend: 0x0, symName: __ZNSt3__16vectorINS0_INS_4pairIcjEENS_9allocatorIS2_EEEENS3_IS5_EEE21_ConstructTransactionC1B8ue170006ERS7_m, symObjAddr: 0x9D14, symBinAddr: 0x10000D084, symSize: 0x3C }
  - { offsetInCU: 0x1C382, offset: 0x1C382, size: 0x8, addend: 0x0, symName: __ZNSt3__116allocator_traitsINS_9allocatorINS_6vectorINS_4pairIcjEENS1_IS4_EEEEEEE9constructB8ue170006IS6_JEvEEvRS7_PT_DpOT0_, symObjAddr: 0x9D50, symBinAddr: 0x10000D0C0, symSize: 0x2C }
  - { offsetInCU: 0x1C3C4, offset: 0x1C3C4, size: 0x8, addend: 0x0, symName: __ZNSt3__16vectorINS0_INS_4pairIcjEENS_9allocatorIS2_EEEENS3_IS5_EEE21_ConstructTransactionD1B8ue170006Ev, symObjAddr: 0x9D7C, symBinAddr: 0x10000D0EC, symSize: 0x2C }
  - { offsetInCU: 0x1C3ED, offset: 0x1C3ED, size: 0x8, addend: 0x0, symName: __ZNSt3__16vectorINS0_INS_4pairIcjEENS_9allocatorIS2_EEEENS3_IS5_EEE21_ConstructTransactionC2B8ue170006ERS7_m, symObjAddr: 0x9DA8, symBinAddr: 0x10000D118, symSize: 0x4C }
  - { offsetInCU: 0x1C434, offset: 0x1C434, size: 0x8, addend: 0x0, symName: __ZNSt3__19allocatorINS_6vectorINS_4pairIcjEENS0_IS3_EEEEE9constructB8ue170006IS5_JEEEvPT_DpOT0_, symObjAddr: 0x9DF4, symBinAddr: 0x10000D164, symSize: 0x28 }
  - { offsetInCU: 0x1C475, offset: 0x1C475, size: 0x8, addend: 0x0, symName: __ZNSt3__16vectorINS_4pairIcjEENS_9allocatorIS2_EEEC1B8ue170006Ev, symObjAddr: 0x9E1C, symBinAddr: 0x10000D18C, symSize: 0x2C }
  - { offsetInCU: 0x1C49E, offset: 0x1C49E, size: 0x8, addend: 0x0, symName: __ZNSt3__16vectorINS_4pairIcjEENS_9allocatorIS2_EEEC2B8ue170006Ev, symObjAddr: 0x9E48, symBinAddr: 0x10000D1B8, symSize: 0x4C }
  - { offsetInCU: 0x1C4C7, offset: 0x1C4C7, size: 0x8, addend: 0x0, symName: __ZNSt3__117__compressed_pairIPNS_4pairIcjEENS_9allocatorIS2_EEEC1B8ue170006IDnNS_18__default_init_tagEEEOT_OT0_, symObjAddr: 0x9E94, symBinAddr: 0x10000D204, symSize: 0x3C }
  - { offsetInCU: 0x1C51E, offset: 0x1C51E, size: 0x8, addend: 0x0, symName: __ZNSt3__117__compressed_pairIPNS_4pairIcjEENS_9allocatorIS2_EEEC2B8ue170006IDnNS_18__default_init_tagEEEOT_OT0_, symObjAddr: 0x9ED0, symBinAddr: 0x10000D240, symSize: 0x40 }
  - { offsetInCU: 0x1C575, offset: 0x1C575, size: 0x8, addend: 0x0, symName: __ZNSt3__122__compressed_pair_elemIPNS_4pairIcjEELi0ELb0EEC2B8ue170006IDnvEEOT_, symObjAddr: 0x9F10, symBinAddr: 0x10000D280, symSize: 0x1C }
  - { offsetInCU: 0x1C5B6, offset: 0x1C5B6, size: 0x8, addend: 0x0, symName: __ZNSt3__122__compressed_pair_elemINS_9allocatorINS_4pairIcjEEEELi1ELb1EEC2B8ue170006ENS_18__default_init_tagE, symObjAddr: 0x9F2C, symBinAddr: 0x10000D29C, symSize: 0x2C }
  - { offsetInCU: 0x1C5EA, offset: 0x1C5EA, size: 0x8, addend: 0x0, symName: __ZNSt3__19allocatorINS_4pairIcjEEEC2B8ue170006Ev, symObjAddr: 0x9F58, symBinAddr: 0x10000D2C8, symSize: 0x2C }
  - { offsetInCU: 0x1C613, offset: 0x1C613, size: 0x8, addend: 0x0, symName: __ZNSt3__116__non_trivial_ifILb1ENS_9allocatorINS_4pairIcjEEEEEC2B8ue170006Ev, symObjAddr: 0x9F84, symBinAddr: 0x10000D2F4, symSize: 0x14 }
  - { offsetInCU: 0x1C63C, offset: 0x1C63C, size: 0x8, addend: 0x0, symName: __ZNSt3__16vectorINS0_INS_4pairIcjEENS_9allocatorIS2_EEEENS3_IS5_EEE21_ConstructTransactionD2B8ue170006Ev, symObjAddr: 0x9F98, symBinAddr: 0x10000D308, symSize: 0x20 }
  - { offsetInCU: 0x1C665, offset: 0x1C665, size: 0x8, addend: 0x0, symName: __ZNSt3__128__exception_guard_exceptionsINS_6vectorINS1_INS_4pairIcjEENS_9allocatorIS3_EEEENS4_IS6_EEE16__destroy_vectorEED2B8ue170006Ev, symObjAddr: 0x9FB8, symBinAddr: 0x10000D328, symSize: 0x50 }
  - { offsetInCU: 0x1C68E, offset: 0x1C68E, size: 0x8, addend: 0x0, symName: __ZNSt3__16vectorINS0_INS_4pairIcjEENS_9allocatorIS2_EEEENS3_IS5_EEE16__destroy_vectorclB8ue170006Ev, symObjAddr: 0xA008, symBinAddr: 0x10000D378, symSize: 0x90 }
  - { offsetInCU: 0x1C6B3, offset: 0x1C6B3, size: 0x8, addend: 0x0, symName: __ZNSt3__16vectorINS0_INS_4pairIcjEENS_9allocatorIS2_EEEENS3_IS5_EEE7__clearB8ue170006Ev, symObjAddr: 0xA098, symBinAddr: 0x10000D408, symSize: 0x28 }
  - { offsetInCU: 0x1C6D8, offset: 0x1C6D8, size: 0x8, addend: 0x0, symName: __ZNKSt3__16vectorINS0_INS_4pairIcjEENS_9allocatorIS2_EEEENS3_IS5_EEE17__annotate_deleteB8ue170006Ev, symObjAddr: 0xA0C0, symBinAddr: 0x10000D430, symSize: 0xD4 }
  - { offsetInCU: 0x1C6FD, offset: 0x1C6FD, size: 0x8, addend: 0x0, symName: __ZNSt3__116allocator_traitsINS_9allocatorINS_6vectorINS_4pairIcjEENS1_IS4_EEEEEEE10deallocateB8ue170006ERS7_PS6_m, symObjAddr: 0xA194, symBinAddr: 0x10000D504, symSize: 0x34 }
  - { offsetInCU: 0x1C73F, offset: 0x1C73F, size: 0x8, addend: 0x0, symName: __ZNSt3__16vectorINS0_INS_4pairIcjEENS_9allocatorIS2_EEEENS3_IS5_EEE22__base_destruct_at_endB8ue170006EPS5_, symObjAddr: 0xA1C8, symBinAddr: 0x10000D538, symSize: 0x8C }
  - { offsetInCU: 0x1C782, offset: 0x1C782, size: 0x8, addend: 0x0, symName: __ZNSt3__116allocator_traitsINS_9allocatorINS_6vectorINS_4pairIcjEENS1_IS4_EEEEEEE7destroyB8ue170006IS6_vEEvRS7_PT_, symObjAddr: 0xA254, symBinAddr: 0x10000D5C4, symSize: 0x2C }
  - { offsetInCU: 0x1C7BF, offset: 0x1C7BF, size: 0x8, addend: 0x0, symName: __ZNSt3__19allocatorINS_6vectorINS_4pairIcjEENS0_IS3_EEEEE7destroyB8ue170006EPS5_, symObjAddr: 0xA280, symBinAddr: 0x10000D5F0, symSize: 0x28 }
  - { offsetInCU: 0x1C7F2, offset: 0x1C7F2, size: 0x8, addend: 0x0, symName: __ZNSt3__16vectorINS_4pairIcjEENS_9allocatorIS2_EEED1B8ue170006Ev, symObjAddr: 0xA2A8, symBinAddr: 0x10000D618, symSize: 0x2C }
  - { offsetInCU: 0x1C81B, offset: 0x1C81B, size: 0x8, addend: 0x0, symName: __ZNSt3__16vectorINS_4pairIcjEENS_9allocatorIS2_EEED2B8ue170006Ev, symObjAddr: 0xA2D4, symBinAddr: 0x10000D644, symSize: 0x44 }
  - { offsetInCU: 0x1C844, offset: 0x1C844, size: 0x8, addend: 0x0, symName: __ZNSt3__16vectorINS_4pairIcjEENS_9allocatorIS2_EEE16__destroy_vectorC1B8ue170006ERS5_, symObjAddr: 0xA318, symBinAddr: 0x10000D688, symSize: 0x34 }
  - { offsetInCU: 0x1C87C, offset: 0x1C87C, size: 0x8, addend: 0x0, symName: __ZNSt3__16vectorINS_4pairIcjEENS_9allocatorIS2_EEE16__destroy_vectorclB8ue170006Ev, symObjAddr: 0xA34C, symBinAddr: 0x10000D6BC, symSize: 0x90 }
  - { offsetInCU: 0x1C8A1, offset: 0x1C8A1, size: 0x8, addend: 0x0, symName: __ZNSt3__16vectorINS_4pairIcjEENS_9allocatorIS2_EEE16__destroy_vectorC2B8ue170006ERS5_, symObjAddr: 0xA3DC, symBinAddr: 0x10000D74C, symSize: 0x20 }
  - { offsetInCU: 0x1C8D9, offset: 0x1C8D9, size: 0x8, addend: 0x0, symName: __ZNSt3__16vectorINS_4pairIcjEENS_9allocatorIS2_EEE7__clearB8ue170006Ev, symObjAddr: 0xA3FC, symBinAddr: 0x10000D76C, symSize: 0x28 }
  - { offsetInCU: 0x1C8FE, offset: 0x1C8FE, size: 0x8, addend: 0x0, symName: __ZNKSt3__16vectorINS_4pairIcjEENS_9allocatorIS2_EEE17__annotate_deleteB8ue170006Ev, symObjAddr: 0xA424, symBinAddr: 0x10000D794, symSize: 0xB8 }
  - { offsetInCU: 0x1C923, offset: 0x1C923, size: 0x8, addend: 0x0, symName: __ZNSt3__116allocator_traitsINS_9allocatorINS_4pairIcjEEEEE10deallocateB8ue170006ERS4_PS3_m, symObjAddr: 0xA4DC, symBinAddr: 0x10000D84C, symSize: 0x34 }
  - { offsetInCU: 0x1C965, offset: 0x1C965, size: 0x8, addend: 0x0, symName: __ZNSt3__16vectorINS_4pairIcjEENS_9allocatorIS2_EEE7__allocB8ue170006Ev, symObjAddr: 0xA510, symBinAddr: 0x10000D880, symSize: 0x28 }
  - { offsetInCU: 0x1C98A, offset: 0x1C98A, size: 0x8, addend: 0x0, symName: __ZNKSt3__16vectorINS_4pairIcjEENS_9allocatorIS2_EEE8capacityB8ue170006Ev, symObjAddr: 0xA538, symBinAddr: 0x10000D8A8, symSize: 0x40 }
  - { offsetInCU: 0x1C9AF, offset: 0x1C9AF, size: 0x8, addend: 0x0, symName: __ZNSt3__16vectorINS_4pairIcjEENS_9allocatorIS2_EEE22__base_destruct_at_endB8ue170006EPS2_, symObjAddr: 0xA578, symBinAddr: 0x10000D8E8, symSize: 0x8C }
  - { offsetInCU: 0x1C9F2, offset: 0x1C9F2, size: 0x8, addend: 0x0, symName: __ZNSt3__116allocator_traitsINS_9allocatorINS_4pairIcjEEEEE7destroyB8ue170006IS3_vEEvRS4_PT_, symObjAddr: 0xA604, symBinAddr: 0x10000D974, symSize: 0x2C }
  - { offsetInCU: 0x1CA2F, offset: 0x1CA2F, size: 0x8, addend: 0x0, symName: __ZNSt3__19allocatorINS_4pairIcjEEE7destroyB8ue170006EPS2_, symObjAddr: 0xA644, symBinAddr: 0x10000D9B4, symSize: 0x14 }
  - { offsetInCU: 0x1CA62, offset: 0x1CA62, size: 0x8, addend: 0x0, symName: __ZNKSt3__16vectorINS_4pairIcjEENS_9allocatorIS2_EEE31__annotate_contiguous_containerB8ue170006EPKvS7_S7_S7_, symObjAddr: 0xA658, symBinAddr: 0x10000D9C8, symSize: 0x20 }
  - { offsetInCU: 0x1CAB3, offset: 0x1CAB3, size: 0x8, addend: 0x0, symName: __ZNKSt3__16vectorINS_4pairIcjEENS_9allocatorIS2_EEE4dataB8ue170006Ev, symObjAddr: 0xA678, symBinAddr: 0x10000D9E8, symSize: 0x28 }
  - { offsetInCU: 0x1CAD8, offset: 0x1CAD8, size: 0x8, addend: 0x0, symName: __ZNSt3__19allocatorINS_4pairIcjEEE10deallocateB8ue170006EPS2_m, symObjAddr: 0xA6A0, symBinAddr: 0x10000DA10, symSize: 0x40 }
  - { offsetInCU: 0x1CB19, offset: 0x1CB19, size: 0x8, addend: 0x0, symName: __ZNSt3__117__compressed_pairIPNS_4pairIcjEENS_9allocatorIS2_EEE6secondB8ue170006Ev, symObjAddr: 0xA6E0, symBinAddr: 0x10000DA50, symSize: 0x24 }
  - { offsetInCU: 0x1CB3E, offset: 0x1CB3E, size: 0x8, addend: 0x0, symName: __ZNSt3__122__compressed_pair_elemINS_9allocatorINS_4pairIcjEEEELi1ELb1EE5__getB8ue170006Ev, symObjAddr: 0xA704, symBinAddr: 0x10000DA74, symSize: 0x14 }
  - { offsetInCU: 0x1CB63, offset: 0x1CB63, size: 0x8, addend: 0x0, symName: __ZNKSt3__16vectorINS_4pairIcjEENS_9allocatorIS2_EEE9__end_capB8ue170006Ev, symObjAddr: 0xA718, symBinAddr: 0x10000DA88, symSize: 0x28 }
  - { offsetInCU: 0x1CB88, offset: 0x1CB88, size: 0x8, addend: 0x0, symName: __ZNKSt3__117__compressed_pairIPNS_4pairIcjEENS_9allocatorIS2_EEE5firstB8ue170006Ev, symObjAddr: 0xA740, symBinAddr: 0x10000DAB0, symSize: 0x24 }
  - { offsetInCU: 0x1CBAD, offset: 0x1CBAD, size: 0x8, addend: 0x0, symName: __ZNKSt3__122__compressed_pair_elemIPNS_4pairIcjEELi0ELb0EE5__getB8ue170006Ev, symObjAddr: 0xA764, symBinAddr: 0x10000DAD4, symSize: 0x14 }
  - { offsetInCU: 0x1CBD2, offset: 0x1CBD2, size: 0x8, addend: 0x0, symName: __ZNKSt3__16vectorINS0_INS_4pairIcjEENS_9allocatorIS2_EEEENS3_IS5_EEE4sizeB8ue170006Ev, symObjAddr: 0xA778, symBinAddr: 0x10000DAE8, symSize: 0x28 }
  - { offsetInCU: 0x1CBF7, offset: 0x1CBF7, size: 0x8, addend: 0x0, symName: __ZNSt3__19allocatorINS_6vectorINS_4pairIcjEENS0_IS3_EEEEE10deallocateB8ue170006EPS5_m, symObjAddr: 0xA7A0, symBinAddr: 0x10000DB10, symSize: 0x44 }
  - { offsetInCU: 0x1CC38, offset: 0x1CC38, size: 0x8, addend: 0x0, symName: __ZNSt3__16vectorINS0_INS_4pairIcjEENS_9allocatorIS2_EEEENS3_IS5_EEED2B8ue170006Ev, symObjAddr: 0xA7E4, symBinAddr: 0x10000DB54, symSize: 0x40 }
  - { offsetInCU: 0x1CC61, offset: 0x1CC61, size: 0x8, addend: 0x0, symName: __ZNKSt3__112basic_stringIcNS_11char_traitsIcEENS_9allocatorIcEEE4sizeB8ue170006Ev, symObjAddr: 0xA824, symBinAddr: 0x10000DB94, symSize: 0x54 }
  - { offsetInCU: 0x1CC90, offset: 0x1CC90, size: 0x8, addend: 0x0, symName: __ZNSt3__116allocator_traitsINS_9allocatorIcEEE37select_on_container_copy_constructionB8ue170006IS2_vvEES2_RKS2_, symObjAddr: 0xA878, symBinAddr: 0x10000DBE8, symSize: 0x10 }
  - { offsetInCU: 0x1CCBF, offset: 0x1CCBF, size: 0x8, addend: 0x0, symName: __ZNKSt3__112basic_stringIcNS_11char_traitsIcEENS_9allocatorIcEEE13get_allocatorB8ue170006Ev, symObjAddr: 0xA888, symBinAddr: 0x10000DBF8, symSize: 0x24 }
  - { offsetInCU: 0x1CCE4, offset: 0x1CCE4, size: 0x8, addend: 0x0, symName: __ZNSt3__112basic_stringIcNS_11char_traitsIcEENS_9allocatorIcEEEC1B8ue170006ENS_24__uninitialized_size_tagEmRKS4_, symObjAddr: 0xA8AC, symBinAddr: 0x10000DC1C, symSize: 0x3C }
  - { offsetInCU: 0x1CD36, offset: 0x1CD36, size: 0x8, addend: 0x0, symName: __ZNSt3__112basic_stringIcNS_11char_traitsIcEENS_9allocatorIcEEE13__get_pointerB8ue170006Ev, symObjAddr: 0xA8FC, symBinAddr: 0x10000DC6C, symSize: 0x54 }
  - { offsetInCU: 0x1CD5B, offset: 0x1CD5B, size: 0x8, addend: 0x0, symName: __ZNSt3__111char_traitsIcE4copyB8ue170006EPcPKcm, symObjAddr: 0xA950, symBinAddr: 0x10000DCC0, symSize: 0x40 }
  - { offsetInCU: 0x1CD9A, offset: 0x1CD9A, size: 0x8, addend: 0x0, symName: __ZNSt3__111char_traitsIcE6assignB8ue170006EPcmc, symObjAddr: 0xA990, symBinAddr: 0x10000DD00, symSize: 0x44 }
  - { offsetInCU: 0x1CDD9, offset: 0x1CDD9, size: 0x8, addend: 0x0, symName: __ZNKSt3__112basic_stringIcNS_11char_traitsIcEENS_9allocatorIcEEE15__get_long_sizeB8ue170006Ev, symObjAddr: 0xA9D4, symBinAddr: 0x10000DD44, symSize: 0x28 }
  - { offsetInCU: 0x1CDFE, offset: 0x1CDFE, size: 0x8, addend: 0x0, symName: __ZNKSt3__112basic_stringIcNS_11char_traitsIcEENS_9allocatorIcEEE16__get_short_sizeB8ue170006Ev, symObjAddr: 0xA9FC, symBinAddr: 0x10000DD6C, symSize: 0x34 }
  - { offsetInCU: 0x1CE23, offset: 0x1CE23, size: 0x8, addend: 0x0, symName: __ZNKSt3__112basic_stringIcNS_11char_traitsIcEENS_9allocatorIcEEE7__allocB8ue170006Ev, symObjAddr: 0xAA30, symBinAddr: 0x10000DDA0, symSize: 0x24 }
  - { offsetInCU: 0x1CE48, offset: 0x1CE48, size: 0x8, addend: 0x0, symName: __ZNKSt3__117__compressed_pairINS_12basic_stringIcNS_11char_traitsIcEENS_9allocatorIcEEE5__repES5_E6secondB8ue170006Ev, symObjAddr: 0xAA54, symBinAddr: 0x10000DDC4, symSize: 0x24 }
  - { offsetInCU: 0x1CE6D, offset: 0x1CE6D, size: 0x8, addend: 0x0, symName: __ZNKSt3__122__compressed_pair_elemINS_9allocatorIcEELi1ELb1EE5__getB8ue170006Ev, symObjAddr: 0xAA78, symBinAddr: 0x10000DDE8, symSize: 0x14 }
  - { offsetInCU: 0x1CE92, offset: 0x1CE92, size: 0x8, addend: 0x0, symName: __ZNSt3__112basic_stringIcNS_11char_traitsIcEENS_9allocatorIcEEEC2B8ue170006ENS_24__uninitialized_size_tagEmRKS4_, symObjAddr: 0xAA8C, symBinAddr: 0x10000DDFC, symSize: 0x110 }
  - { offsetInCU: 0x1CF11, offset: 0x1CF11, size: 0x8, addend: 0x0, symName: __ZNSt3__117__compressed_pairINS_12basic_stringIcNS_11char_traitsIcEENS_9allocatorIcEEE5__repES5_EC1B8ue170006INS_18__default_init_tagERKS5_EEOT_OT0_, symObjAddr: 0xAB9C, symBinAddr: 0x10000DF0C, symSize: 0x3C }
  - { offsetInCU: 0x1CF68, offset: 0x1CF68, size: 0x8, addend: 0x0, symName: __ZNKSt3__112basic_stringIcNS_11char_traitsIcEENS_9allocatorIcEEE8max_sizeB8ue170006Ev, symObjAddr: 0xABD8, symBinAddr: 0x10000DF48, symSize: 0xAC }
  - { offsetInCU: 0x1CFBA, offset: 0x1CFBA, size: 0x8, addend: 0x0, symName: __ZNKSt3__112basic_stringIcNS_11char_traitsIcEENS_9allocatorIcEEE20__throw_length_errorB8ue170006Ev, symObjAddr: 0xAC84, symBinAddr: 0x10000DFF4, symSize: 0x1C }
  - { offsetInCU: 0x1CFDF, offset: 0x1CFDF, size: 0x8, addend: 0x0, symName: __ZNSt3__112basic_stringIcNS_11char_traitsIcEENS_9allocatorIcEEE13__fits_in_ssoB8ue170006Em, symObjAddr: 0xACA0, symBinAddr: 0x10000E010, symSize: 0x20 }
  - { offsetInCU: 0x1D003, offset: 0x1D003, size: 0x8, addend: 0x0, symName: __ZNSt3__112basic_stringIcNS_11char_traitsIcEENS_9allocatorIcEEE16__set_short_sizeB8ue170006Em, symObjAddr: 0xACC0, symBinAddr: 0x10000E030, symSize: 0x78 }
  - { offsetInCU: 0x1D037, offset: 0x1D037, size: 0x8, addend: 0x0, symName: __ZNSt3__112basic_stringIcNS_11char_traitsIcEENS_9allocatorIcEEE11__recommendB8ue170006Em, symObjAddr: 0xAD38, symBinAddr: 0x10000E0A8, symSize: 0x84 }
  - { offsetInCU: 0x1D06A, offset: 0x1D06A, size: 0x8, addend: 0x0, symName: __ZNSt3__116allocator_traitsINS_9allocatorIcEEE8allocateB8ue170006ERS2_m, symObjAddr: 0xADBC, symBinAddr: 0x10000E12C, symSize: 0x2C }
  - { offsetInCU: 0x1D09D, offset: 0x1D09D, size: 0x8, addend: 0x0, symName: __ZNSt3__112basic_stringIcNS_11char_traitsIcEENS_9allocatorIcEEE7__allocB8ue170006Ev, symObjAddr: 0xADE8, symBinAddr: 0x10000E158, symSize: 0x24 }
  - { offsetInCU: 0x1D0C2, offset: 0x1D0C2, size: 0x8, addend: 0x0, symName: __ZNSt3__112basic_stringIcNS_11char_traitsIcEENS_9allocatorIcEEE16__begin_lifetimeB8ue170006EPcm, symObjAddr: 0xAE0C, symBinAddr: 0x10000E17C, symSize: 0x14 }
  - { offsetInCU: 0x1D0F5, offset: 0x1D0F5, size: 0x8, addend: 0x0, symName: __ZNSt3__112basic_stringIcNS_11char_traitsIcEENS_9allocatorIcEEE14__set_long_capB8ue170006Em, symObjAddr: 0xAE20, symBinAddr: 0x10000E190, symSize: 0x70 }
  - { offsetInCU: 0x1D129, offset: 0x1D129, size: 0x8, addend: 0x0, symName: __ZNSt3__112basic_stringIcNS_11char_traitsIcEENS_9allocatorIcEEE18__set_long_pointerB8ue170006EPc, symObjAddr: 0xAE90, symBinAddr: 0x10000E200, symSize: 0x38 }
  - { offsetInCU: 0x1D15D, offset: 0x1D15D, size: 0x8, addend: 0x0, symName: __ZNSt3__112basic_stringIcNS_11char_traitsIcEENS_9allocatorIcEEE15__set_long_sizeB8ue170006Em, symObjAddr: 0xAEC8, symBinAddr: 0x10000E238, symSize: 0x38 }
  - { offsetInCU: 0x1D191, offset: 0x1D191, size: 0x8, addend: 0x0, symName: __ZNSt3__117__compressed_pairINS_12basic_stringIcNS_11char_traitsIcEENS_9allocatorIcEEE5__repES5_EC2B8ue170006INS_18__default_init_tagERKS5_EEOT_OT0_, symObjAddr: 0xAF00, symBinAddr: 0x10000E270, symSize: 0x40 }
  - { offsetInCU: 0x1D1E8, offset: 0x1D1E8, size: 0x8, addend: 0x0, symName: __ZNSt3__122__compressed_pair_elemINS_9allocatorIcEELi1ELb1EEC2B8ue170006IRKS2_vEEOT_, symObjAddr: 0xAF40, symBinAddr: 0x10000E2B0, symSize: 0x18 }
  - { offsetInCU: 0x1D229, offset: 0x1D229, size: 0x8, addend: 0x0, symName: __ZNSt3__116allocator_traitsINS_9allocatorIcEEE8max_sizeB8ue170006IS2_vEEmRKS2_, symObjAddr: 0xAF58, symBinAddr: 0x10000E2C8, symSize: 0x24 }
  - { offsetInCU: 0x1D257, offset: 0x1D257, size: 0x8, addend: 0x0, symName: __ZNSt3__114numeric_limitsImE3maxB8ue170006Ev, symObjAddr: 0xAF7C, symBinAddr: 0x10000E2EC, symSize: 0x14 }
  - { offsetInCU: 0x1D26B, offset: 0x1D26B, size: 0x8, addend: 0x0, symName: __ZNKSt3__19allocatorIcE8max_sizeB8ue170006Ev, symObjAddr: 0xAF90, symBinAddr: 0x10000E300, symSize: 0x14 }
  - { offsetInCU: 0x1D290, offset: 0x1D290, size: 0x8, addend: 0x0, symName: __ZNSt3__123__libcpp_numeric_limitsImLb1EE3maxB8ue170006Ev, symObjAddr: 0xAFA4, symBinAddr: 0x10000E314, symSize: 0x8 }
  - { offsetInCU: 0x1D2A4, offset: 0x1D2A4, size: 0x8, addend: 0x0, symName: __ZNSt3__112basic_stringIcNS_11char_traitsIcEENS_9allocatorIcEEE10__align_itB8ue170006ILm16EEEmm, symObjAddr: 0xAFAC, symBinAddr: 0x10000E31C, symSize: 0x1C }
  - { offsetInCU: 0x1D2D2, offset: 0x1D2D2, size: 0x8, addend: 0x0, symName: __ZNSt3__19allocatorIcE8allocateB8ue170006Em, symObjAddr: 0xAFC8, symBinAddr: 0x10000E338, symSize: 0x58 }
  - { offsetInCU: 0x1D305, offset: 0x1D305, size: 0x8, addend: 0x0, symName: __ZNSt3__117__compressed_pairINS_12basic_stringIcNS_11char_traitsIcEENS_9allocatorIcEEE5__repES5_E6secondB8ue170006Ev, symObjAddr: 0xB020, symBinAddr: 0x10000E390, symSize: 0x24 }
  - { offsetInCU: 0x1D32A, offset: 0x1D32A, size: 0x8, addend: 0x0, symName: __ZNSt3__122__compressed_pair_elemINS_9allocatorIcEELi1ELb1EE5__getB8ue170006Ev, symObjAddr: 0xB044, symBinAddr: 0x10000E3B4, symSize: 0x14 }
  - { offsetInCU: 0x1D34F, offset: 0x1D34F, size: 0x8, addend: 0x0, symName: __ZNSt3__112basic_stringIcNS_11char_traitsIcEENS_9allocatorIcEEE18__get_long_pointerB8ue170006Ev, symObjAddr: 0xB058, symBinAddr: 0x10000E3C8, symSize: 0x28 }
  - { offsetInCU: 0x1D374, offset: 0x1D374, size: 0x8, addend: 0x0, symName: __ZNSt3__112basic_stringIcNS_11char_traitsIcEENS_9allocatorIcEEE19__get_short_pointerB8ue170006Ev, symObjAddr: 0xB080, symBinAddr: 0x10000E3F0, symSize: 0x28 }
  - { offsetInCU: 0x1D399, offset: 0x1D399, size: 0x8, addend: 0x0, symName: __ZNSt3__114pointer_traitsIPcE10pointer_toB8ue170006ERc, symObjAddr: 0xB0A8, symBinAddr: 0x10000E418, symSize: 0x14 }
  - { offsetInCU: 0x1D3D5, offset: 0x1D3D5, size: 0x8, addend: 0x0, symName: __ZNKSt3__114__copy_trivialclB8ue170006IKccLi0EEENS_4pairIPT_PT0_EES5_S5_S7_, symObjAddr: 0xB2DC, symBinAddr: 0x10000E64C, symSize: 0x48 }
  - { offsetInCU: 0x1D45A, offset: 0x1D45A, size: 0x8, addend: 0x0, symName: __ZNSt3__14pairIPKcS2_EC1B8ue170006IS2_S2_LPv0EEEOT_OT0_, symObjAddr: 0xB444, symBinAddr: 0x10000E7B4, symSize: 0x3C }
  - { offsetInCU: 0x1D4B7, offset: 0x1D4B7, size: 0x8, addend: 0x0, symName: __ZNSt3__14pairIPKcS2_EC2B8ue170006IS2_S2_LPv0EEEOT_OT0_, symObjAddr: 0xB480, symBinAddr: 0x10000E7F0, symSize: 0x34 }
  - { offsetInCU: 0x1D514, offset: 0x1D514, size: 0x8, addend: 0x0, symName: __ZNSt3__118__unwrap_iter_implIPKcLb1EE8__unwrapB8ue170006ES2_, symObjAddr: 0xB4B4, symBinAddr: 0x10000E824, symSize: 0x24 }
  - { offsetInCU: 0x1D541, offset: 0x1D541, size: 0x8, addend: 0x0, symName: __ZNSt3__14pairIPKcPcEC1B8ue170006IRS2_S3_LPv0EEEOT_OT0_, symObjAddr: 0xB5EC, symBinAddr: 0x10000E95C, symSize: 0x3C }
  - { offsetInCU: 0x1D59E, offset: 0x1D59E, size: 0x8, addend: 0x0, symName: __ZNSt3__14pairIPKcPcEC2B8ue170006IRS2_S3_LPv0EEEOT_OT0_, symObjAddr: 0xB628, symBinAddr: 0x10000E998, symSize: 0x34 }
  - { offsetInCU: 0x1D5FB, offset: 0x1D5FB, size: 0x8, addend: 0x0, symName: __ZNSt3__118__unwrap_iter_implIPcLb1EE8__unwrapB8ue170006ES1_, symObjAddr: 0xB65C, symBinAddr: 0x10000E9CC, symSize: 0x24 }
  - { offsetInCU: 0x1D61E, offset: 0x1D61E, size: 0x8, addend: 0x0, symName: __ZNSt3__14pairIPKcPcEC1B8ue170006IS2_S3_LPv0EEEOT_OT0_, symObjAddr: 0xB680, symBinAddr: 0x10000E9F0, symSize: 0x3C }
  - { offsetInCU: 0x1D67B, offset: 0x1D67B, size: 0x8, addend: 0x0, symName: __ZNSt3__14pairIPKcPcEC2B8ue170006IS2_S3_LPv0EEEOT_OT0_, symObjAddr: 0xB6BC, symBinAddr: 0x10000EA2C, symSize: 0x34 }
  - { offsetInCU: 0x1D6D8, offset: 0x1D6D8, size: 0x8, addend: 0x0, symName: __ZNSt3__118__unwrap_iter_implIPKcLb1EE8__rewrapB8ue170006ES2_S2_, symObjAddr: 0xB72C, symBinAddr: 0x10000EA9C, symSize: 0x48 }
  - { offsetInCU: 0x1D709, offset: 0x1D709, size: 0x8, addend: 0x0, symName: __ZNSt3__118__unwrap_iter_implIPcLb1EE8__rewrapB8ue170006ES1_S1_, symObjAddr: 0xB774, symBinAddr: 0x10000EAE4, symSize: 0x48 }
  - { offsetInCU: 0x1D73A, offset: 0x1D73A, size: 0x8, addend: 0x0, symName: __ZNSt3__112basic_stringIcNS_11char_traitsIcEENS_9allocatorIcEEE6appendB8ue170006ERKS5_, symObjAddr: 0xB878, symBinAddr: 0x10000EBE8, symSize: 0x4C }
  - { offsetInCU: 0x1D76E, offset: 0x1D76E, size: 0x8, addend: 0x0, symName: __ZNSt3__112basic_stringIcNS_11char_traitsIcEENS_9allocatorIcEEEC1B8ue170006EOS5_, symObjAddr: 0xB8C4, symBinAddr: 0x10000EC34, symSize: 0x34 }
  - { offsetInCU: 0x1D7A6, offset: 0x1D7A6, size: 0x8, addend: 0x0, symName: __ZNSt3__112basic_stringIcNS_11char_traitsIcEENS_9allocatorIcEEEC2B8ue170006EOS5_, symObjAddr: 0xB8F8, symBinAddr: 0x10000EC68, symSize: 0x48 }
  - { offsetInCU: 0x1D7DE, offset: 0x1D7DE, size: 0x8, addend: 0x0, symName: __ZNSt3__19basic_iosIcNS_11char_traitsIcEEEC2B8ue170006Ev, symObjAddr: 0xB940, symBinAddr: 0x10000ECB0, symSize: 0x44 }
  - { offsetInCU: 0x1D807, offset: 0x1D807, size: 0x8, addend: 0x0, symName: __ZNSt3__113basic_istreamIcNS_11char_traitsIcEEEC2B8ue170006EPNS_15basic_streambufIcS2_EE, symObjAddr: 0xB984, symBinAddr: 0x10000ECF4, symSize: 0x64 }
  - { offsetInCU: 0x1D84A, offset: 0x1D84A, size: 0x8, addend: 0x0, symName: __ZNSt3__113basic_filebufIcNS_11char_traitsIcEEE4openERKNS_12basic_stringIcS2_NS_9allocatorIcEEEEj, symObjAddr: 0xB9E8, symBinAddr: 0x10000ED58, symSize: 0x44 }
  - { offsetInCU: 0x1D88C, offset: 0x1D88C, size: 0x8, addend: 0x0, symName: __ZNSt3__18ios_baseC2B8ue170006Ev, symObjAddr: 0xBA2C, symBinAddr: 0x10000ED9C, symSize: 0x24 }
  - { offsetInCU: 0x1D8B5, offset: 0x1D8B5, size: 0x8, addend: 0x0, symName: __ZNSt3__19basic_iosIcNS_11char_traitsIcEEE4initB8ue170006EPNS_15basic_streambufIcS2_EE, symObjAddr: 0xBA50, symBinAddr: 0x10000EDC0, symSize: 0x44 }
  - { offsetInCU: 0x1D8EA, offset: 0x1D8EA, size: 0x8, addend: 0x0, symName: __ZNKSt3__112basic_stringIcNS_11char_traitsIcEENS_9allocatorIcEEE5c_strB8ue170006Ev, symObjAddr: 0xBA94, symBinAddr: 0x10000EE04, symSize: 0x24 }
  - { offsetInCU: 0x1D90F, offset: 0x1D90F, size: 0x8, addend: 0x0, symName: __ZNKSt3__19basic_iosIcNS_11char_traitsIcEEE4failB8ue170006Ev, symObjAddr: 0xBAB8, symBinAddr: 0x10000EE28, symSize: 0x28 }
  - { offsetInCU: 0x1D934, offset: 0x1D934, size: 0x8, addend: 0x0, symName: __ZNKSt3__18ios_base4failB8ue170006Ev, symObjAddr: 0xBAE0, symBinAddr: 0x10000EE50, symSize: 0x28 }
  - { offsetInCU: 0x1D979, offset: 0x1D979, size: 0x8, addend: 0x0, symName: __ZNKSt3__113basic_istreamIcNS_11char_traitsIcEEE6sentrycvbB8ue170006Ev, symObjAddr: 0xBD40, symBinAddr: 0x10000F0B0, symSize: 0x1C }
  - { offsetInCU: 0x1D99E, offset: 0x1D99E, size: 0x8, addend: 0x0, symName: __ZNSt3__112basic_stringIcNS_11char_traitsIcEENS_9allocatorIcEEE5clearB8ue170006Ev, symObjAddr: 0xBD5C, symBinAddr: 0x10000F0CC, symSize: 0x78 }
  - { offsetInCU: 0x1D9C4, offset: 0x1D9C4, size: 0x8, addend: 0x0, symName: __ZNSt3__115basic_streambufIcNS_11char_traitsIcEEE6sbumpcB8ue170006Ev, symObjAddr: 0xBDD4, symBinAddr: 0x10000F144, symSize: 0x78 }
  - { offsetInCU: 0x1D9E9, offset: 0x1D9E9, size: 0x8, addend: 0x0, symName: __ZNSt3__111char_traitsIcE12to_char_typeB8ue170006Ei, symObjAddr: 0xBE4C, symBinAddr: 0x10000F1BC, symSize: 0x18 }
  - { offsetInCU: 0x1DA0C, offset: 0x1DA0C, size: 0x8, addend: 0x0, symName: __ZNSt3__111char_traitsIcE2eqEcc, symObjAddr: 0xBE64, symBinAddr: 0x10000F1D4, symSize: 0x28 }
  - { offsetInCU: 0x1DA3D, offset: 0x1DA3D, size: 0x8, addend: 0x0, symName: __ZNSt3__18ios_base18__setstate_nothrowB8ue170006Ej, symObjAddr: 0xBE8C, symBinAddr: 0x10000F1FC, symSize: 0x64 }
  - { offsetInCU: 0x1DA71, offset: 0x1DA71, size: 0x8, addend: 0x0, symName: __ZNKSt3__19basic_iosIcNS_11char_traitsIcEEE10exceptionsB8ue170006Ev, symObjAddr: 0xBEF0, symBinAddr: 0x10000F260, symSize: 0x24 }
  - { offsetInCU: 0x1DA96, offset: 0x1DA96, size: 0x8, addend: 0x0, symName: __ZNSt3__111char_traitsIcE6assignB8ue170006ERcRKc, symObjAddr: 0xBF14, symBinAddr: 0x10000F284, symSize: 0x24 }
  - { offsetInCU: 0x1DAC7, offset: 0x1DAC7, size: 0x8, addend: 0x0, symName: __ZNSt3__111char_traitsIcE11to_int_typeB8ue170006Ec, symObjAddr: 0xBF38, symBinAddr: 0x10000F2A8, symSize: 0x14 }
  - { offsetInCU: 0x1DAEB, offset: 0x1DAEB, size: 0x8, addend: 0x0, symName: __ZNKSt3__18ios_base10exceptionsB8ue170006Ev, symObjAddr: 0xBF4C, symBinAddr: 0x10000F2BC, symSize: 0x18 }
  - { offsetInCU: 0x1DB12, offset: 0x1DB12, size: 0x8, addend: 0x0, symName: __ZNSt3__115basic_stringbufIcNS_11char_traitsIcEENS_9allocatorIcEEEC1B8ue170006ERKNS_12basic_stringIcS2_S4_EEj, symObjAddr: 0xBF64, symBinAddr: 0x10000F2D4, symSize: 0x3C }
  - { offsetInCU: 0x1DB59, offset: 0x1DB59, size: 0x8, addend: 0x0, symName: __ZNSt3__115basic_stringbufIcNS_11char_traitsIcEENS_9allocatorIcEEEC2B8ue170006ERKNS_12basic_stringIcS2_S4_EEj, symObjAddr: 0xBFA0, symBinAddr: 0x10000F310, symSize: 0xB4 }
  - { offsetInCU: 0x1DBA0, offset: 0x1DBA0, size: 0x8, addend: 0x0, symName: __ZNSt3__112basic_stringIcNS_11char_traitsIcEENS_9allocatorIcEEEC1B8ue170006ERKS4_, symObjAddr: 0xC054, symBinAddr: 0x10000F3C4, symSize: 0x34 }
  - { offsetInCU: 0x1DBD8, offset: 0x1DBD8, size: 0x8, addend: 0x0, symName: __ZNSt3__112basic_stringIcNS_11char_traitsIcEENS_9allocatorIcEEEC2B8ue170006ERKS4_, symObjAddr: 0xC088, symBinAddr: 0x10000F3F8, symSize: 0x48 }
  - { offsetInCU: 0x1DC10, offset: 0x1DC10, size: 0x8, addend: 0x0, symName: __ZNSt3__16vectorINS_4pairIcjEENS_9allocatorIS2_EEE9__end_capB8ue170006Ev, symObjAddr: 0xC0D0, symBinAddr: 0x10000F440, symSize: 0x28 }
  - { offsetInCU: 0x1DC35, offset: 0x1DC35, size: 0x8, addend: 0x0, symName: __ZNSt3__16vectorINS_4pairIcjEENS_9allocatorIS2_EEE22__construct_one_at_endB8ue170006IJRcRjEEEvDpOT_, symObjAddr: 0xC0F8, symBinAddr: 0x10000F468, symSize: 0x98 }
  - { offsetInCU: 0x1DC97, offset: 0x1DC97, size: 0x8, addend: 0x0, symName: __ZNSt3__16vectorINS_4pairIcjEENS_9allocatorIS2_EEE24__emplace_back_slow_pathIJRcRjEEEvDpOT_, symObjAddr: 0xC190, symBinAddr: 0x10000F500, symSize: 0xE0 }
  - { offsetInCU: 0x1DD09, offset: 0x1DD09, size: 0x8, addend: 0x0, symName: __ZNSt3__117__compressed_pairIPNS_4pairIcjEENS_9allocatorIS2_EEE5firstB8ue170006Ev, symObjAddr: 0xC270, symBinAddr: 0x10000F5E0, symSize: 0x24 }
  - { offsetInCU: 0x1DD2E, offset: 0x1DD2E, size: 0x8, addend: 0x0, symName: __ZNSt3__122__compressed_pair_elemIPNS_4pairIcjEELi0ELb0EE5__getB8ue170006Ev, symObjAddr: 0xC294, symBinAddr: 0x10000F604, symSize: 0x14 }
  - { offsetInCU: 0x1DD6C, offset: 0x1DD6C, size: 0x8, addend: 0x0, symName: __ZNSt3__16vectorINS_4pairIcjEENS_9allocatorIS2_EEE21_ConstructTransactionC1B8ue170006ERS5_m, symObjAddr: 0xC2A8, symBinAddr: 0x10000F618, symSize: 0x3C }
  - { offsetInCU: 0x1DDB3, offset: 0x1DDB3, size: 0x8, addend: 0x0, symName: __ZNSt3__116allocator_traitsINS_9allocatorINS_4pairIcjEEEEE9constructB8ue170006IS3_JRcRjEvEEvRS4_PT_DpOT0_, symObjAddr: 0xC2E4, symBinAddr: 0x10000F654, symSize: 0x3C }
  - { offsetInCU: 0x1DE1E, offset: 0x1DE1E, size: 0x8, addend: 0x0, symName: __ZNSt3__16vectorINS_4pairIcjEENS_9allocatorIS2_EEE21_ConstructTransactionD1B8ue170006Ev, symObjAddr: 0xC320, symBinAddr: 0x10000F690, symSize: 0x2C }
  - { offsetInCU: 0x1DE47, offset: 0x1DE47, size: 0x8, addend: 0x0, symName: __ZNSt3__16vectorINS_4pairIcjEENS_9allocatorIS2_EEE21_ConstructTransactionC2B8ue170006ERS5_m, symObjAddr: 0xC34C, symBinAddr: 0x10000F6BC, symSize: 0x44 }
  - { offsetInCU: 0x1DE8E, offset: 0x1DE8E, size: 0x8, addend: 0x0, symName: __ZNSt3__19allocatorINS_4pairIcjEEE9constructB8ue170006IS2_JRcRjEEEvPT_DpOT0_, symObjAddr: 0xC390, symBinAddr: 0x10000F700, symSize: 0x38 }
  - { offsetInCU: 0x1DEF6, offset: 0x1DEF6, size: 0x8, addend: 0x0, symName: __ZNSt3__14pairIcjEC1B8ue170006IRcRjLPv0EEEOT_OT0_, symObjAddr: 0xC3C8, symBinAddr: 0x10000F738, symSize: 0x3C }
  - { offsetInCU: 0x1DF53, offset: 0x1DF53, size: 0x8, addend: 0x0, symName: __ZNSt3__14pairIcjEC2B8ue170006IRcRjLPv0EEEOT_OT0_, symObjAddr: 0xC404, symBinAddr: 0x10000F774, symSize: 0x34 }
  - { offsetInCU: 0x1DFB0, offset: 0x1DFB0, size: 0x8, addend: 0x0, symName: __ZNSt3__16vectorINS_4pairIcjEENS_9allocatorIS2_EEE21_ConstructTransactionD2B8ue170006Ev, symObjAddr: 0xC438, symBinAddr: 0x10000F7A8, symSize: 0x20 }
  - { offsetInCU: 0x1DFD9, offset: 0x1DFD9, size: 0x8, addend: 0x0, symName: __ZNKSt3__16vectorINS_4pairIcjEENS_9allocatorIS2_EEE11__recommendB8ue170006Em, symObjAddr: 0xC458, symBinAddr: 0x10000F7C8, symSize: 0xB4 }
  - { offsetInCU: 0x1E02C, offset: 0x1E02C, size: 0x8, addend: 0x0, symName: __ZNSt3__114__split_bufferINS_4pairIcjEERNS_9allocatorIS2_EEEC1EmmS5_, symObjAddr: 0xC50C, symBinAddr: 0x10000F87C, symSize: 0x44 }
  - { offsetInCU: 0x1E081, offset: 0x1E081, size: 0x8, addend: 0x0, symName: __ZNSt3__114__split_bufferINS_4pairIcjEERNS_9allocatorIS2_EEED1Ev, symObjAddr: 0xC660, symBinAddr: 0x10000F9D0, symSize: 0x2C }
  - { offsetInCU: 0x1E0AC, offset: 0x1E0AC, size: 0x8, addend: 0x0, symName: __ZNKSt3__16vectorINS_4pairIcjEENS_9allocatorIS2_EEE8max_sizeEv, symObjAddr: 0xC68C, symBinAddr: 0x10000F9FC, symSize: 0x60 }
  - { offsetInCU: 0x1E0D2, offset: 0x1E0D2, size: 0x8, addend: 0x0, symName: __ZNKSt3__16vectorINS_4pairIcjEENS_9allocatorIS2_EEE20__throw_length_errorB8ue170006Ev, symObjAddr: 0xC6EC, symBinAddr: 0x10000FA5C, symSize: 0x1C }
  - { offsetInCU: 0x1E101, offset: 0x1E101, size: 0x8, addend: 0x0, symName: __ZNSt3__116allocator_traitsINS_9allocatorINS_4pairIcjEEEEE8max_sizeB8ue170006IS4_vEEmRKS4_, symObjAddr: 0xC708, symBinAddr: 0x10000FA78, symSize: 0x24 }
  - { offsetInCU: 0x1E12F, offset: 0x1E12F, size: 0x8, addend: 0x0, symName: __ZNKSt3__16vectorINS_4pairIcjEENS_9allocatorIS2_EEE7__allocB8ue170006Ev, symObjAddr: 0xC72C, symBinAddr: 0x10000FA9C, symSize: 0x28 }
  - { offsetInCU: 0x1E154, offset: 0x1E154, size: 0x8, addend: 0x0, symName: __ZNKSt3__19allocatorINS_4pairIcjEEE8max_sizeB8ue170006Ev, symObjAddr: 0xC754, symBinAddr: 0x10000FAC4, symSize: 0x14 }
  - { offsetInCU: 0x1E179, offset: 0x1E179, size: 0x8, addend: 0x0, symName: __ZNKSt3__117__compressed_pairIPNS_4pairIcjEENS_9allocatorIS2_EEE6secondB8ue170006Ev, symObjAddr: 0xC768, symBinAddr: 0x10000FAD8, symSize: 0x24 }
  - { offsetInCU: 0x1E19E, offset: 0x1E19E, size: 0x8, addend: 0x0, symName: __ZNKSt3__122__compressed_pair_elemINS_9allocatorINS_4pairIcjEEEELi1ELb1EE5__getB8ue170006Ev, symObjAddr: 0xC78C, symBinAddr: 0x10000FAFC, symSize: 0x14 }
  - { offsetInCU: 0x1E1C3, offset: 0x1E1C3, size: 0x8, addend: 0x0, symName: __ZNSt3__114__split_bufferINS_4pairIcjEERNS_9allocatorIS2_EEEC2EmmS5_, symObjAddr: 0xC7A0, symBinAddr: 0x10000FB10, symSize: 0xD4 }
  - { offsetInCU: 0x1E236, offset: 0x1E236, size: 0x8, addend: 0x0, symName: __ZNSt3__117__compressed_pairIPNS_4pairIcjEERNS_9allocatorIS2_EEEC1B8ue170006IDnS6_EEOT_OT0_, symObjAddr: 0xC874, symBinAddr: 0x10000FBE4, symSize: 0x3C }
  - { offsetInCU: 0x1E28D, offset: 0x1E28D, size: 0x8, addend: 0x0, symName: __ZNSt3__114__split_bufferINS_4pairIcjEERNS_9allocatorIS2_EEE7__allocB8ue170006Ev, symObjAddr: 0xC8F0, symBinAddr: 0x10000FC60, symSize: 0x28 }
  - { offsetInCU: 0x1E2B2, offset: 0x1E2B2, size: 0x8, addend: 0x0, symName: __ZNSt3__114__split_bufferINS_4pairIcjEERNS_9allocatorIS2_EEE9__end_capB8ue170006Ev, symObjAddr: 0xC918, symBinAddr: 0x10000FC88, symSize: 0x28 }
  - { offsetInCU: 0x1E2D7, offset: 0x1E2D7, size: 0x8, addend: 0x0, symName: __ZNSt3__117__compressed_pairIPNS_4pairIcjEERNS_9allocatorIS2_EEEC2B8ue170006IDnS6_EEOT_OT0_, symObjAddr: 0xC940, symBinAddr: 0x10000FCB0, symSize: 0x48 }
  - { offsetInCU: 0x1E32E, offset: 0x1E32E, size: 0x8, addend: 0x0, symName: __ZNSt3__122__compressed_pair_elemIRNS_9allocatorINS_4pairIcjEEEELi1ELb0EEC2B8ue170006IS5_vEEOT_, symObjAddr: 0xC988, symBinAddr: 0x10000FCF8, symSize: 0x20 }
  - { offsetInCU: 0x1E36F, offset: 0x1E36F, size: 0x8, addend: 0x0, symName: __ZNSt3__19allocatorINS_4pairIcjEEE8allocateB8ue170006Em, symObjAddr: 0xC9A8, symBinAddr: 0x10000FD18, symSize: 0x58 }
  - { offsetInCU: 0x1E3A2, offset: 0x1E3A2, size: 0x8, addend: 0x0, symName: __ZNSt3__117__compressed_pairIPNS_4pairIcjEERNS_9allocatorIS2_EEE6secondB8ue170006Ev, symObjAddr: 0xCA00, symBinAddr: 0x10000FD70, symSize: 0x28 }
  - { offsetInCU: 0x1E3C7, offset: 0x1E3C7, size: 0x8, addend: 0x0, symName: __ZNSt3__122__compressed_pair_elemIRNS_9allocatorINS_4pairIcjEEEELi1ELb0EE5__getB8ue170006Ev, symObjAddr: 0xCA28, symBinAddr: 0x10000FD98, symSize: 0x18 }
  - { offsetInCU: 0x1E3EC, offset: 0x1E3EC, size: 0x8, addend: 0x0, symName: __ZNSt3__117__compressed_pairIPNS_4pairIcjEERNS_9allocatorIS2_EEE5firstB8ue170006Ev, symObjAddr: 0xCA40, symBinAddr: 0x10000FDB0, symSize: 0x24 }
  - { offsetInCU: 0x1E411, offset: 0x1E411, size: 0x8, addend: 0x0, symName: __ZNSt3__116reverse_iteratorIPNS_4pairIcjEEEC1B8ue170006ES3_, symObjAddr: 0xCB90, symBinAddr: 0x10000FF00, symSize: 0x34 }
  - { offsetInCU: 0x1E448, offset: 0x1E448, size: 0x8, addend: 0x0, symName: __ZNKSt3__116reverse_iteratorIPNS_4pairIcjEEE4baseB8ue170006Ev, symObjAddr: 0xCBC4, symBinAddr: 0x10000FF34, symSize: 0x18 }
  - { offsetInCU: 0x1E46D, offset: 0x1E46D, size: 0x8, addend: 0x0, symName: __ZNKSt3__16vectorINS_4pairIcjEENS_9allocatorIS2_EEE14__annotate_newB8ue170006Em, symObjAddr: 0xCC18, symBinAddr: 0x10000FF88, symSize: 0xAC }
  - { offsetInCU: 0x1E4A1, offset: 0x1E4A1, size: 0x8, addend: 0x0, symName: __ZNSt3__129_AllocatorDestroyRangeReverseINS_9allocatorINS_4pairIcjEEEENS_16reverse_iteratorIPS3_EEEC1B8ue170006ERS4_RS7_SA_, symObjAddr: 0xCD10, symBinAddr: 0x100010080, symSize: 0x44 }
  - { offsetInCU: 0x1E4F7, offset: 0x1E4F7, size: 0x8, addend: 0x0, symName: __ZNSt3__116allocator_traitsINS_9allocatorINS_4pairIcjEEEEE9constructB8ue170006IS3_JS3_EvEEvRS4_PT_DpOT0_, symObjAddr: 0xCD9C, symBinAddr: 0x10001010C, symSize: 0x34 }
  - { offsetInCU: 0x1E54E, offset: 0x1E54E, size: 0x8, addend: 0x0, symName: __ZNKSt3__116reverse_iteratorIPNS_4pairIcjEEEdeB8ue170006Ev, symObjAddr: 0xCDF4, symBinAddr: 0x100010164, symSize: 0x28 }
  - { offsetInCU: 0x1E581, offset: 0x1E581, size: 0x8, addend: 0x0, symName: __ZNSt3__116reverse_iteratorIPNS_4pairIcjEEEppB8ue170006Ev, symObjAddr: 0xCE1C, symBinAddr: 0x10001018C, symSize: 0x20 }
  - { offsetInCU: 0x1E5A6, offset: 0x1E5A6, size: 0x8, addend: 0x0, symName: __ZNSt3__128__exception_guard_exceptionsINS_29_AllocatorDestroyRangeReverseINS_9allocatorINS_4pairIcjEEEENS_16reverse_iteratorIPS4_EEEEE10__completeB8ue170006Ev, symObjAddr: 0xCE3C, symBinAddr: 0x1000101AC, symSize: 0x1C }
  - { offsetInCU: 0x1E5CB, offset: 0x1E5CB, size: 0x8, addend: 0x0, symName: __ZNSt3__128__exception_guard_exceptionsINS_29_AllocatorDestroyRangeReverseINS_9allocatorINS_4pairIcjEEEENS_16reverse_iteratorIPS4_EEEEED1B8ue170006Ev, symObjAddr: 0xCE58, symBinAddr: 0x1000101C8, symSize: 0x2C }
  - { offsetInCU: 0x1E5F4, offset: 0x1E5F4, size: 0x8, addend: 0x0, symName: __ZNSt3__128__exception_guard_exceptionsINS_29_AllocatorDestroyRangeReverseINS_9allocatorINS_4pairIcjEEEENS_16reverse_iteratorIPS4_EEEEEC1B8ue170006ES9_, symObjAddr: 0xCE84, symBinAddr: 0x1000101F4, symSize: 0x34 }
  - { offsetInCU: 0x1E62C, offset: 0x1E62C, size: 0x8, addend: 0x0, symName: __ZNSt3__128__exception_guard_exceptionsINS_29_AllocatorDestroyRangeReverseINS_9allocatorINS_4pairIcjEEEENS_16reverse_iteratorIPS4_EEEEEC2B8ue170006ES9_, symObjAddr: 0xCEB8, symBinAddr: 0x100010228, symSize: 0x30 }
  - { offsetInCU: 0x1E664, offset: 0x1E664, size: 0x8, addend: 0x0, symName: __ZNSt3__129_AllocatorDestroyRangeReverseINS_9allocatorINS_4pairIcjEEEENS_16reverse_iteratorIPS3_EEEC2B8ue170006ERS4_RS7_SA_, symObjAddr: 0xCEE8, symBinAddr: 0x100010258, symSize: 0x38 }
  - { offsetInCU: 0x1E6BA, offset: 0x1E6BA, size: 0x8, addend: 0x0, symName: __ZNSt3__19allocatorINS_4pairIcjEEE9constructB8ue170006IS2_JS2_EEEvPT_DpOT0_, symObjAddr: 0xCF20, symBinAddr: 0x100010290, symSize: 0x28 }
  - { offsetInCU: 0x1E714, offset: 0x1E714, size: 0x8, addend: 0x0, symName: __ZNSt3__119__to_address_helperINS_16reverse_iteratorIPNS_4pairIcjEEEEvE6__callB8ue170006ERKS5_, symObjAddr: 0xCF48, symBinAddr: 0x1000102B8, symSize: 0x38 }
  - { offsetInCU: 0x1E737, offset: 0x1E737, size: 0x8, addend: 0x0, symName: __ZNKSt3__116reverse_iteratorIPNS_4pairIcjEEEptB8ue170006Ev, symObjAddr: 0xCF80, symBinAddr: 0x1000102F0, symSize: 0x24 }
  - { offsetInCU: 0x1E75C, offset: 0x1E75C, size: 0x8, addend: 0x0, symName: __ZNSt3__128__exception_guard_exceptionsINS_29_AllocatorDestroyRangeReverseINS_9allocatorINS_4pairIcjEEEENS_16reverse_iteratorIPS4_EEEEED2B8ue170006Ev, symObjAddr: 0xCFA4, symBinAddr: 0x100010314, symSize: 0x50 }
  - { offsetInCU: 0x1E785, offset: 0x1E785, size: 0x8, addend: 0x0, symName: __ZNKSt3__129_AllocatorDestroyRangeReverseINS_9allocatorINS_4pairIcjEEEENS_16reverse_iteratorIPS3_EEEclB8ue170006Ev, symObjAddr: 0xCFF4, symBinAddr: 0x100010364, symSize: 0xB4 }
  - { offsetInCU: 0x1E7AB, offset: 0x1E7AB, size: 0x8, addend: 0x0, symName: __ZNSt3__116reverse_iteratorINS0_IPNS_4pairIcjEEEEEC1B8ue170006ES4_, symObjAddr: 0xD118, symBinAddr: 0x100010488, symSize: 0x3C }
  - { offsetInCU: 0x1E7E2, offset: 0x1E7E2, size: 0x8, addend: 0x0, symName: __ZNSt3__116reverse_iteratorINS0_IPNS_4pairIcjEEEEEppB8ue170006Ev, symObjAddr: 0xD1D8, symBinAddr: 0x100010548, symSize: 0x30 }
  - { offsetInCU: 0x1E807, offset: 0x1E807, size: 0x8, addend: 0x0, symName: __ZNKSt3__116reverse_iteratorINS0_IPNS_4pairIcjEEEEE4baseB8ue170006Ev, symObjAddr: 0xD208, symBinAddr: 0x100010578, symSize: 0x24 }
  - { offsetInCU: 0x1E831, offset: 0x1E831, size: 0x8, addend: 0x0, symName: __ZNSt3__119__to_address_helperINS_16reverse_iteratorINS1_IPNS_4pairIcjEEEEEEvE6__callB8ue170006ERKS6_, symObjAddr: 0xD22C, symBinAddr: 0x10001059C, symSize: 0x38 }
  - { offsetInCU: 0x1E854, offset: 0x1E854, size: 0x8, addend: 0x0, symName: __ZNKSt3__116reverse_iteratorINS0_IPNS_4pairIcjEEEEEptB8ue170006Ev, symObjAddr: 0xD264, symBinAddr: 0x1000105D4, symSize: 0x24 }
  - { offsetInCU: 0x1E879, offset: 0x1E879, size: 0x8, addend: 0x0, symName: __ZNKSt3__116reverse_iteratorINS0_IPNS_4pairIcjEEEEEdeB8ue170006Ev, symObjAddr: 0xD288, symBinAddr: 0x1000105F8, symSize: 0x34 }
  - { offsetInCU: 0x1E8AC, offset: 0x1E8AC, size: 0x8, addend: 0x0, symName: __ZNSt3__116reverse_iteratorIPNS_4pairIcjEEEmmB8ue170006Ev, symObjAddr: 0xD2BC, symBinAddr: 0x10001062C, symSize: 0x20 }
  - { offsetInCU: 0x1E8D1, offset: 0x1E8D1, size: 0x8, addend: 0x0, symName: __ZNSt3__116reverse_iteratorINS0_IPNS_4pairIcjEEEEEC2B8ue170006ES4_, symObjAddr: 0xD2DC, symBinAddr: 0x10001064C, symSize: 0x2C }
  - { offsetInCU: 0x1E908, offset: 0x1E908, size: 0x8, addend: 0x0, symName: __ZNSt3__116reverse_iteratorIPNS_4pairIcjEEEC2B8ue170006ES3_, symObjAddr: 0xD308, symBinAddr: 0x100010678, symSize: 0x28 }
  - { offsetInCU: 0x1E93F, offset: 0x1E93F, size: 0x8, addend: 0x0, symName: __ZNSt3__114__split_bufferINS_4pairIcjEERNS_9allocatorIS2_EEED2Ev, symObjAddr: 0xD330, symBinAddr: 0x1000106A0, symSize: 0x8C }
  - { offsetInCU: 0x1E96A, offset: 0x1E96A, size: 0x8, addend: 0x0, symName: __ZNSt3__114__split_bufferINS_4pairIcjEERNS_9allocatorIS2_EEE5clearB8ue170006Ev, symObjAddr: 0xD3BC, symBinAddr: 0x10001072C, symSize: 0x28 }
  - { offsetInCU: 0x1E98F, offset: 0x1E98F, size: 0x8, addend: 0x0, symName: __ZNKSt3__114__split_bufferINS_4pairIcjEERNS_9allocatorIS2_EEE8capacityB8ue170006Ev, symObjAddr: 0xD3E4, symBinAddr: 0x100010754, symSize: 0x40 }
  - { offsetInCU: 0x1E9B4, offset: 0x1E9B4, size: 0x8, addend: 0x0, symName: __ZNSt3__114__split_bufferINS_4pairIcjEERNS_9allocatorIS2_EEE17__destruct_at_endB8ue170006EPS2_, symObjAddr: 0xD424, symBinAddr: 0x100010794, symSize: 0x2C }
  - { offsetInCU: 0x1E9E7, offset: 0x1E9E7, size: 0x8, addend: 0x0, symName: __ZNSt3__114__split_bufferINS_4pairIcjEERNS_9allocatorIS2_EEE17__destruct_at_endB8ue170006EPS2_NS_17integral_constantIbLb0EEE, symObjAddr: 0xD450, symBinAddr: 0x1000107C0, symSize: 0x80 }
  - { offsetInCU: 0x1EA26, offset: 0x1EA26, size: 0x8, addend: 0x0, symName: __ZNKSt3__114__split_bufferINS_4pairIcjEERNS_9allocatorIS2_EEE9__end_capB8ue170006Ev, symObjAddr: 0xD4D0, symBinAddr: 0x100010840, symSize: 0x28 }
  - { offsetInCU: 0x1EA4B, offset: 0x1EA4B, size: 0x8, addend: 0x0, symName: __ZNKSt3__117__compressed_pairIPNS_4pairIcjEERNS_9allocatorIS2_EEE5firstB8ue170006Ev, symObjAddr: 0xD4F8, symBinAddr: 0x100010868, symSize: 0x24 }
  - { offsetInCU: 0x1EA70, offset: 0x1EA70, size: 0x8, addend: 0x0, symName: __ZNSt3__113basic_ostreamIcNS_11char_traitsIcEEEC2B8ue170006EPNS_15basic_streambufIcS2_EE, symObjAddr: 0xD51C, symBinAddr: 0x10001088C, symSize: 0x60 }
  - { offsetInCU: 0x26, offset: 0x1ED62, size: 0x8, addend: 0x0, symName: __Z12parseAddressjjjRjS_S_, symObjAddr: 0x0, symBinAddr: 0x100010948, symSize: 0x8C }
  - { offsetInCU: 0x4C2B, offset: 0x23967, size: 0x8, addend: 0x0, symName: __Z12parseAddressjjjRjS_S_, symObjAddr: 0x0, symBinAddr: 0x100010948, symSize: 0x8C }
  - { offsetInCU: 0x4C9A, offset: 0x239D6, size: 0x8, addend: 0x0, symName: __Z7findLRURKNSt3__16vectorI9CacheLineNS_9allocatorIS1_EEEE, symObjAddr: 0x8C, symBinAddr: 0x1000109D4, symSize: 0xAC }
  - { offsetInCU: 0x4CFF, offset: 0x23A3B, size: 0x8, addend: 0x0, symName: __ZNKSt3__16vectorI9CacheLineNS_9allocatorIS1_EEEixB8ue170006Em, symObjAddr: 0x160, symBinAddr: 0x100010A80, symSize: 0x2C }
  - { offsetInCU: 0x4D35, offset: 0x23A71, size: 0x8, addend: 0x0, symName: __Z9updateLRURNSt3__16vectorI9CacheLineNS_9allocatorIS1_EEEEi, symObjAddr: 0x18C, symBinAddr: 0x100010AAC, symSize: 0x88 }
  - { offsetInCU: 0x4D89, offset: 0x23AC5, size: 0x8, addend: 0x0, symName: __ZNSt3__16vectorI9CacheLineNS_9allocatorIS1_EEEixB8ue170006Em, symObjAddr: 0x214, symBinAddr: 0x100010B34, symSize: 0x2C }
  - { offsetInCU: 0x4DBF, offset: 0x23AFB, size: 0x8, addend: 0x0, symName: __Z16processReferenceicj, symObjAddr: 0x240, symBinAddr: 0x100010B60, symSize: 0x234 }
  - { offsetInCU: 0x4FFD, offset: 0x23D39, size: 0x8, addend: 0x0, symName: __ZNSt3__16vectorINS0_I9CacheLineNS_9allocatorIS1_EEEENS2_IS4_EEEixB8ue170006Em, symObjAddr: 0x4A0, symBinAddr: 0x100010D94, symSize: 0x2C }
  - { offsetInCU: 0x3960, offset: 0x276D9, size: 0x8, addend: 0x0, symName: __ZNSt3__1neB8ue170006IP9CacheLineEEbRKNS_11__wrap_iterIT_EES7_, symObjAddr: 0x3BC, symBinAddr: 0x100011124, symSize: 0x34 }
  - { offsetInCU: 0x39A3, offset: 0x2771C, size: 0x8, addend: 0x0, symName: __ZNSt3__1eqB8ue170006IP9CacheLineEEbRKNS_11__wrap_iterIT_EES7_, symObjAddr: 0x6A8, symBinAddr: 0x1000113E4, symSize: 0x48 }
  - { offsetInCU: 0x39E6, offset: 0x2775F, size: 0x8, addend: 0x0, symName: __ZNSt3__142__uninitialized_allocator_move_if_noexceptB8ue170006INS_9allocatorIjEENS_16reverse_iteratorIPjEES5_jvEET1_RT_T0_S9_S6_, symObjAddr: 0x17A8, symBinAddr: 0x100011D3C, symSize: 0x78 }
  - { offsetInCU: 0x3A63, offset: 0x277DC, size: 0x8, addend: 0x0, symName: __ZNSt3__14swapB8ue170006IPjEENS_9enable_ifIXaasr21is_move_constructibleIT_EE5valuesr18is_move_assignableIS3_EE5valueEvE4typeERS3_S6_, symObjAddr: 0x186C, symBinAddr: 0x100011E00, symSize: 0x3C }
  - { offsetInCU: 0x3AB4, offset: 0x2782D, size: 0x8, addend: 0x0, symName: __ZNSt3__14moveB8ue170006INS_16reverse_iteratorIPjEES3_EET0_T_S5_S4_, symObjAddr: 0x199C, symBinAddr: 0x100011E3C, symSize: 0x78 }
  - { offsetInCU: 0x3B0E, offset: 0x27887, size: 0x8, addend: 0x0, symName: __ZNSt3__16__moveB8ue170006INS_17_ClassicAlgPolicyENS_16reverse_iteratorIPjEES4_S4_EENS_4pairIT0_T2_EES6_T1_S7_, symObjAddr: 0x1A14, symBinAddr: 0x100011EB4, symSize: 0x64 }
  - { offsetInCU: 0x3B7A, offset: 0x278F3, size: 0x8, addend: 0x0, symName: __ZNSt3__123__dispatch_copy_or_moveB8ue170006INS_17_ClassicAlgPolicyENS_11__move_loopIS1_EENS_14__move_trivialENS_16reverse_iteratorIPjEES7_S7_EENS_4pairIT2_T4_EES9_T3_SA_, symObjAddr: 0x1A78, symBinAddr: 0x100011F18, symSize: 0x64 }
  - { offsetInCU: 0x3BF8, offset: 0x27971, size: 0x8, addend: 0x0, symName: __ZNSt3__121__unwrap_and_dispatchB8ue170006INS_10__overloadINS_11__move_loopINS_17_ClassicAlgPolicyEEENS_14__move_trivialEEENS_16reverse_iteratorIPjEES9_S9_Li0EEENS_4pairIT0_T2_EESB_T1_SC_, symObjAddr: 0x1ADC, symBinAddr: 0x100011F7C, symSize: 0x12C }
  - { offsetInCU: 0x3C88, offset: 0x27A01, size: 0x8, addend: 0x0, symName: __ZNSt3__114__unwrap_rangeB8ue170006INS_16reverse_iteratorIPjEES3_EENS_4pairIT0_S5_EET_S7_, symObjAddr: 0x1C08, symBinAddr: 0x1000120A8, symSize: 0x84 }
  - { offsetInCU: 0x3DFA, offset: 0x27B73, size: 0x8, addend: 0x0, symName: __ZNSt3__113__unwrap_iterB8ue170006INS_16reverse_iteratorIPjEENS_18__unwrap_iter_implIS3_Lb0EEELi0EEEDTclsrT0_8__unwrapclsr3stdE7declvalIT_EEEES7_, symObjAddr: 0x1D2C, symBinAddr: 0x1000121CC, symSize: 0x44 }
  - { offsetInCU: 0x3E3E, offset: 0x27BB7, size: 0x8, addend: 0x0, symName: __ZNSt3__19make_pairB8ue170006INS_16reverse_iteratorIPjEES3_EENS_4pairINS_18__unwrap_ref_decayIT_E4typeENS5_IT0_E4typeEEEOS6_OS9_, symObjAddr: 0x1D70, symBinAddr: 0x100012210, symSize: 0x38 }
  - { offsetInCU: 0x3E8D, offset: 0x27C06, size: 0x8, addend: 0x0, symName: __ZNSt3__114__rewrap_rangeB8ue170006INS_16reverse_iteratorIPjEES3_EET_S4_T0_, symObjAddr: 0x1DA8, symBinAddr: 0x100012248, symSize: 0x5C }
  - { offsetInCU: 0x3ED9, offset: 0x27C52, size: 0x8, addend: 0x0, symName: __ZNSt3__113__rewrap_iterB8ue170006INS_16reverse_iteratorIPjEES3_NS_18__unwrap_iter_implIS3_Lb0EEEEET_S6_T0_, symObjAddr: 0x1E04, symBinAddr: 0x1000122A4, symSize: 0x74 }
  - { offsetInCU: 0x3F2E, offset: 0x27CA7, size: 0x8, addend: 0x0, symName: __ZNSt3__1neB8ue170006IPjS1_EEbRKNS_16reverse_iteratorIT_EERKNS2_IT0_EE, symObjAddr: 0x1E78, symBinAddr: 0x100012318, symSize: 0x48 }
  - { offsetInCU: 0x42BA, offset: 0x28033, size: 0x8, addend: 0x0, symName: __ZNSt3__16vectorIjNS_9allocatorIjEEE26__swap_out_circular_bufferERNS_14__split_bufferIjRS2_EE, symObjAddr: 0xBE8, symBinAddr: 0x1000118AC, symSize: 0x110 }
  - { offsetInCU: 0x61A7, offset: 0x29F20, size: 0x8, addend: 0x0, symName: __Z8snoopBusijbRb, symObjAddr: 0x0, symBinAddr: 0x100010DC0, symSize: 0x304 }
  - { offsetInCU: 0x63F2, offset: 0x2A16B, size: 0x8, addend: 0x0, symName: __ZNSt3__16vectorI9CacheLineNS_9allocatorIS1_EEE5beginB8ue170006Ev, symObjAddr: 0x35C, symBinAddr: 0x1000110C4, symSize: 0x30 }
  - { offsetInCU: 0x6418, offset: 0x2A191, size: 0x8, addend: 0x0, symName: __ZNSt3__16vectorI9CacheLineNS_9allocatorIS1_EEE3endB8ue170006Ev, symObjAddr: 0x38C, symBinAddr: 0x1000110F4, symSize: 0x30 }
  - { offsetInCU: 0x643E, offset: 0x2A1B7, size: 0x8, addend: 0x0, symName: __ZNKSt3__111__wrap_iterIP9CacheLineEdeB8ue170006Ev, symObjAddr: 0x3F0, symBinAddr: 0x100011158, symSize: 0x18 }
  - { offsetInCU: 0x6463, offset: 0x2A1DC, size: 0x8, addend: 0x0, symName: __ZNSt3__111__wrap_iterIP9CacheLineEppB8ue170006Ev, symObjAddr: 0x408, symBinAddr: 0x100011170, symSize: 0x20 }
  - { offsetInCU: 0x6488, offset: 0x2A201, size: 0x8, addend: 0x0, symName: __Z10handleMissijbjj, symObjAddr: 0x428, symBinAddr: 0x100011190, symSize: 0x1B8 }
  - { offsetInCU: 0x6513, offset: 0x2A28C, size: 0x8, addend: 0x0, symName: __ZNSt3__16vectorIjNS_9allocatorIjEEE6resizeEmRKj, symObjAddr: 0x60C, symBinAddr: 0x100011348, symSize: 0x9C }
  - { offsetInCU: 0x6566, offset: 0x2A2DF, size: 0x8, addend: 0x0, symName: __ZNKSt3__111__wrap_iterIP9CacheLineE4baseB8ue170006Ev, symObjAddr: 0x6F0, symBinAddr: 0x10001142C, symSize: 0x18 }
  - { offsetInCU: 0x658B, offset: 0x2A304, size: 0x8, addend: 0x0, symName: __ZNSt3__16vectorI9CacheLineNS_9allocatorIS1_EEE11__make_iterB8ue170006EPS1_, symObjAddr: 0x708, symBinAddr: 0x100011444, symSize: 0x30 }
  - { offsetInCU: 0x65BF, offset: 0x2A338, size: 0x8, addend: 0x0, symName: __ZNSt3__111__wrap_iterIP9CacheLineEC1B8ue170006ES2_, symObjAddr: 0x738, symBinAddr: 0x100011474, symSize: 0x34 }
  - { offsetInCU: 0x65F6, offset: 0x2A36F, size: 0x8, addend: 0x0, symName: __ZNSt3__111__wrap_iterIP9CacheLineEC2B8ue170006ES2_, symObjAddr: 0x76C, symBinAddr: 0x1000114A8, symSize: 0x20 }
  - { offsetInCU: 0x662D, offset: 0x2A3A6, size: 0x8, addend: 0x0, symName: __ZNSt3__16vectorIjNS_9allocatorIjEEE8__appendEmRKj, symObjAddr: 0x7B4, symBinAddr: 0x1000114C8, symSize: 0x114 }
  - { offsetInCU: 0x6695, offset: 0x2A40E, size: 0x8, addend: 0x0, symName: __ZNSt3__16vectorIjNS_9allocatorIjEEE17__destruct_at_endB8ue170006EPj, symObjAddr: 0x8C8, symBinAddr: 0x1000115DC, symSize: 0x4C }
  - { offsetInCU: 0x66D8, offset: 0x2A451, size: 0x8, addend: 0x0, symName: __ZNSt3__16vectorIjNS_9allocatorIjEEE18__construct_at_endEmRKj, symObjAddr: 0x93C, symBinAddr: 0x100011628, symSize: 0xD0 }
  - { offsetInCU: 0x6758, offset: 0x2A4D1, size: 0x8, addend: 0x0, symName: __ZNKSt3__16vectorIjNS_9allocatorIjEEE11__recommendB8ue170006Em, symObjAddr: 0xA34, symBinAddr: 0x1000116F8, symSize: 0xB4 }
  - { offsetInCU: 0x67AB, offset: 0x2A524, size: 0x8, addend: 0x0, symName: __ZNSt3__114__split_bufferIjRNS_9allocatorIjEEEC1EmmS3_, symObjAddr: 0xAE8, symBinAddr: 0x1000117AC, symSize: 0x44 }
  - { offsetInCU: 0x6800, offset: 0x2A579, size: 0x8, addend: 0x0, symName: __ZNSt3__114__split_bufferIjRNS_9allocatorIjEEE18__construct_at_endEmRKj, symObjAddr: 0xB2C, symBinAddr: 0x1000117F0, symSize: 0xBC }
  - { offsetInCU: 0x6851, offset: 0x2A5CA, size: 0x8, addend: 0x0, symName: __ZNSt3__114__split_bufferIjRNS_9allocatorIjEEED1Ev, symObjAddr: 0xCF8, symBinAddr: 0x1000119BC, symSize: 0x2C }
  - { offsetInCU: 0x6895, offset: 0x2A60E, size: 0x8, addend: 0x0, symName: __ZNSt3__116allocator_traitsINS_9allocatorIjEEE9constructB8ue170006IjJRKjEvEEvRS2_PT_DpOT0_, symObjAddr: 0xD98, symBinAddr: 0x1000119E8, symSize: 0x34 }
  - { offsetInCU: 0x68EC, offset: 0x2A665, size: 0x8, addend: 0x0, symName: __ZNSt3__19allocatorIjE9constructB8ue170006IjJRKjEEEvPT_DpOT0_, symObjAddr: 0xE50, symBinAddr: 0x100011A1C, symSize: 0x28 }
  - { offsetInCU: 0x694B, offset: 0x2A6C4, size: 0x8, addend: 0x0, symName: __ZNSt3__114__split_bufferIjRNS_9allocatorIjEEEC2EmmS3_, symObjAddr: 0x12C4, symBinAddr: 0x100011A44, symSize: 0xD4 }
  - { offsetInCU: 0x69C3, offset: 0x2A73C, size: 0x8, addend: 0x0, symName: __ZNSt3__117__compressed_pairIPjRNS_9allocatorIjEEEC1B8ue170006IDnS4_EEOT_OT0_, symObjAddr: 0x1398, symBinAddr: 0x100011B18, symSize: 0x3C }
  - { offsetInCU: 0x6A1A, offset: 0x2A793, size: 0x8, addend: 0x0, symName: __ZNSt3__114__split_bufferIjRNS_9allocatorIjEEE7__allocB8ue170006Ev, symObjAddr: 0x1414, symBinAddr: 0x100011B54, symSize: 0x28 }
  - { offsetInCU: 0x6A3F, offset: 0x2A7B8, size: 0x8, addend: 0x0, symName: __ZNSt3__114__split_bufferIjRNS_9allocatorIjEEE9__end_capB8ue170006Ev, symObjAddr: 0x143C, symBinAddr: 0x100011B7C, symSize: 0x28 }
  - { offsetInCU: 0x6A64, offset: 0x2A7DD, size: 0x8, addend: 0x0, symName: __ZNSt3__117__compressed_pairIPjRNS_9allocatorIjEEEC2B8ue170006IDnS4_EEOT_OT0_, symObjAddr: 0x1464, symBinAddr: 0x100011BA4, symSize: 0x48 }
  - { offsetInCU: 0x6ABB, offset: 0x2A834, size: 0x8, addend: 0x0, symName: __ZNSt3__122__compressed_pair_elemIRNS_9allocatorIjEELi1ELb0EEC2B8ue170006IS3_vEEOT_, symObjAddr: 0x14C8, symBinAddr: 0x100011BEC, symSize: 0x20 }
  - { offsetInCU: 0x6AFC, offset: 0x2A875, size: 0x8, addend: 0x0, symName: __ZNSt3__117__compressed_pairIPjRNS_9allocatorIjEEE6secondB8ue170006Ev, symObjAddr: 0x15C0, symBinAddr: 0x100011C0C, symSize: 0x28 }
  - { offsetInCU: 0x6B21, offset: 0x2A89A, size: 0x8, addend: 0x0, symName: __ZNSt3__122__compressed_pair_elemIRNS_9allocatorIjEELi1ELb0EE5__getB8ue170006Ev, symObjAddr: 0x15E8, symBinAddr: 0x100011C34, symSize: 0x18 }
  - { offsetInCU: 0x6B46, offset: 0x2A8BF, size: 0x8, addend: 0x0, symName: __ZNSt3__117__compressed_pairIPjRNS_9allocatorIjEEE5firstB8ue170006Ev, symObjAddr: 0x1600, symBinAddr: 0x100011C4C, symSize: 0x24 }
  - { offsetInCU: 0x6B75, offset: 0x2A8EE, size: 0x8, addend: 0x0, symName: __ZNSt3__114__split_bufferIjRNS_9allocatorIjEEE21_ConstructTransactionC1B8ue170006EPPjm, symObjAddr: 0x1624, symBinAddr: 0x100011C70, symSize: 0x3C }
  - { offsetInCU: 0x6BBA, offset: 0x2A933, size: 0x8, addend: 0x0, symName: __ZNSt3__114__split_bufferIjRNS_9allocatorIjEEE21_ConstructTransactionD1B8ue170006Ev, symObjAddr: 0x1660, symBinAddr: 0x100011CAC, symSize: 0x2C }
  - { offsetInCU: 0x6BE3, offset: 0x2A95C, size: 0x8, addend: 0x0, symName: __ZNSt3__114__split_bufferIjRNS_9allocatorIjEEE21_ConstructTransactionC2B8ue170006EPPjm, symObjAddr: 0x168C, symBinAddr: 0x100011CD8, symSize: 0x44 }
  - { offsetInCU: 0x6C28, offset: 0x2A9A1, size: 0x8, addend: 0x0, symName: __ZNSt3__114__split_bufferIjRNS_9allocatorIjEEE21_ConstructTransactionD2B8ue170006Ev, symObjAddr: 0x16D0, symBinAddr: 0x100011D1C, symSize: 0x20 }
  - { offsetInCU: 0x6C51, offset: 0x2A9CA, size: 0x8, addend: 0x0, symName: __ZNSt3__116reverse_iteratorIPjEC1B8ue170006ES1_, symObjAddr: 0x1820, symBinAddr: 0x100011DB4, symSize: 0x34 }
  - { offsetInCU: 0x6C88, offset: 0x2AA01, size: 0x8, addend: 0x0, symName: __ZNKSt3__116reverse_iteratorIPjE4baseB8ue170006Ev, symObjAddr: 0x1854, symBinAddr: 0x100011DE8, symSize: 0x18 }
  - { offsetInCU: 0x6CD0, offset: 0x2AA49, size: 0x8, addend: 0x0, symName: __ZNKSt3__111__move_loopINS_17_ClassicAlgPolicyEEclB8ue170006INS_16reverse_iteratorIPjEES6_S6_EENS_4pairIT_T1_EES8_T0_S9_, symObjAddr: 0x1C8C, symBinAddr: 0x10001212C, symSize: 0xA0 }
  - { offsetInCU: 0x6D3F, offset: 0x2AAB8, size: 0x8, addend: 0x0, symName: __ZNSt3__18_IterOpsINS_17_ClassicAlgPolicyEE11__iter_moveB8ue170006IRNS_16reverse_iteratorIPjEEEENS_9enable_ifIXsr12is_referenceIDTdeclsr3stdE7declvalIRT_EEEEE5valueEDTclsr3stdE4movedeclsr3stdE7declvalISA_EEEEE4typeEOS9_, symObjAddr: 0x1EC0, symBinAddr: 0x100012360, symSize: 0x28 }
  - { offsetInCU: 0x6D6B, offset: 0x2AAE4, size: 0x8, addend: 0x0, symName: __ZNKSt3__116reverse_iteratorIPjEdeB8ue170006Ev, symObjAddr: 0x1EE8, symBinAddr: 0x100012388, symSize: 0x28 }
  - { offsetInCU: 0x6D9E, offset: 0x2AB17, size: 0x8, addend: 0x0, symName: __ZNSt3__116reverse_iteratorIPjEppB8ue170006Ev, symObjAddr: 0x1F10, symBinAddr: 0x1000123B0, symSize: 0x20 }
  - { offsetInCU: 0x6DC4, offset: 0x2AB3D, size: 0x8, addend: 0x0, symName: __ZNSt3__18_IterOpsINS_17_ClassicAlgPolicyEE25__validate_iter_referenceB8ue170006IRNS_16reverse_iteratorIPjEEEEvv, symObjAddr: 0x1F30, symBinAddr: 0x1000123D0, symSize: 0x4 }
  - { offsetInCU: 0x6DE2, offset: 0x2AB5B, size: 0x8, addend: 0x0, symName: __ZNSt3__118__unwrap_iter_implINS_16reverse_iteratorIPjEELb0EE8__unwrapB8ue170006ES3_, symObjAddr: 0x1F34, symBinAddr: 0x1000123D4, symSize: 0x24 }
  - { offsetInCU: 0x6E09, offset: 0x2AB82, size: 0x8, addend: 0x0, symName: __ZNSt3__14pairINS_16reverse_iteratorIPjEES3_EC1B8ue170006IS3_S3_LPv0EEEOT_OT0_, symObjAddr: 0x1F58, symBinAddr: 0x1000123F8, symSize: 0x3C }
  - { offsetInCU: 0x6E66, offset: 0x2ABDF, size: 0x8, addend: 0x0, symName: __ZNSt3__14pairINS_16reverse_iteratorIPjEES3_EC2B8ue170006IS3_S3_LPv0EEEOT_OT0_, symObjAddr: 0x1F94, symBinAddr: 0x100012434, symSize: 0x34 }
  - { offsetInCU: 0x6EC4, offset: 0x2AC3D, size: 0x8, addend: 0x0, symName: __ZNSt3__118__unwrap_iter_implINS_16reverse_iteratorIPjEELb0EE8__rewrapB8ue170006ES3_S3_, symObjAddr: 0x1FC8, symBinAddr: 0x100012468, symSize: 0x2C }
  - { offsetInCU: 0x6EF1, offset: 0x2AC6A, size: 0x8, addend: 0x0, symName: __ZNSt3__116reverse_iteratorIPjEC2B8ue170006ES1_, symObjAddr: 0x1FF4, symBinAddr: 0x100012494, symSize: 0x28 }
  - { offsetInCU: 0x6F28, offset: 0x2ACA1, size: 0x8, addend: 0x0, symName: __ZNSt3__114__split_bufferIjRNS_9allocatorIjEEED2Ev, symObjAddr: 0x201C, symBinAddr: 0x1000124BC, symSize: 0x8C }
  - { offsetInCU: 0x6F53, offset: 0x2ACCC, size: 0x8, addend: 0x0, symName: __ZNSt3__114__split_bufferIjRNS_9allocatorIjEEE5clearB8ue170006Ev, symObjAddr: 0x20A8, symBinAddr: 0x100012548, symSize: 0x28 }
  - { offsetInCU: 0x6F78, offset: 0x2ACF1, size: 0x8, addend: 0x0, symName: __ZNKSt3__114__split_bufferIjRNS_9allocatorIjEEE8capacityB8ue170006Ev, symObjAddr: 0x2104, symBinAddr: 0x100012570, symSize: 0x40 }
  - { offsetInCU: 0x6F9D, offset: 0x2AD16, size: 0x8, addend: 0x0, symName: __ZNSt3__114__split_bufferIjRNS_9allocatorIjEEE17__destruct_at_endB8ue170006EPj, symObjAddr: 0x2144, symBinAddr: 0x1000125B0, symSize: 0x2C }
  - { offsetInCU: 0x6FD0, offset: 0x2AD49, size: 0x8, addend: 0x0, symName: __ZNSt3__114__split_bufferIjRNS_9allocatorIjEEE17__destruct_at_endB8ue170006EPjNS_17integral_constantIbLb0EEE, symObjAddr: 0x2170, symBinAddr: 0x1000125DC, symSize: 0x80 }
  - { offsetInCU: 0x700F, offset: 0x2AD88, size: 0x8, addend: 0x0, symName: __ZNKSt3__114__split_bufferIjRNS_9allocatorIjEEE9__end_capB8ue170006Ev, symObjAddr: 0x22EC, symBinAddr: 0x10001265C, symSize: 0x28 }
  - { offsetInCU: 0x7034, offset: 0x2ADAD, size: 0x8, addend: 0x0, symName: __ZNKSt3__117__compressed_pairIPjRNS_9allocatorIjEEE5firstB8ue170006Ev, symObjAddr: 0x2314, symBinAddr: 0x100012684, symSize: 0x24 }
  - { offsetInCU: 0x7059, offset: 0x2ADD2, size: 0x8, addend: 0x0, symName: __ZNKSt3__16vectorIjNS_9allocatorIjEEE17__annotate_shrinkB8ue170006Em, symObjAddr: 0x23C4, symBinAddr: 0x1000126A8, symSize: 0xB4 }
...
